

Microchip Technology PIC LITE Macro Assembler V2.00 build -1524193055 
                                                                                               Wed Jun 16 16:43:37 2021

Microchip Technology Omniscient Code Generator v2.00 (Free mode) build 20180527130849
     1  0000                     
      + 0000                     
     2                           ; Version 2.00
     3                           ; Generated 27/05/2018 GMT
     4                           
     5                           ; 
     6                           ; Copyright © 2018, Microchip Technology Inc. and its subsidiaries ("Microchip")
     7                           ; All rights reserved.
     8                           ; 
     9                           ; This software is developed by Microchip Technology Inc. and its subsidiaries ("Microch
                                 ip").
    10                           ; 
    11                           ; Redistribution and use in source and binary forms, with or without modification, are
    12                           ; permitted provided that the following conditions are met:
    13                           ; 
    14                           ;     1. Redistributions of source code must retain the above copyright notice, this lis
                                 t of
    15                           ;        conditions and the following disclaimer.
    16                           ; 
    17                           ;     2. Redistributions in binary form must reproduce the above copyright notice, this 
                                 list
    18                           ;        of conditions and the following disclaimer in the documentation and/or other
    19                           ;        materials provided with the distribution.
    20                           ; 
    21                           ;     3. Microchip's name may not be used to endorse or promote products derived from th
                                 is
    22                           ;        software without specific prior written permission.
    23                           ; 
    24                           ; THIS SOFTWARE IS PROVIDED BY MICROCHIP "AS IS" AND ANY EXPRESS OR IMPLIED WARRANTIES,

    25                           ; INCLUDING, BUT NOT LIMITED TO, THE IMPLIED WARRANTIES OF MERCHANTABILITY AND FITNESS F
                                 OR
    26                           ; PURPOSE ARE DISCLAIMED.  IN NO EVENT SHALL MICROCHIP BE LIABLE FOR ANY DIRECT, INDIREC
                                 T,
    27                           ; INCIDENTAL, SPECIAL, EXEMPLARY, OR CONSEQUENTIAL DAMAGES (INCLUDING BUT NOT LIMITED TO
                                 
    28                           ; PROCUREMENT OF SUBSTITUTE GOODS OR SERVICES; LOSS OF USE, DATA OR PROFITS; OR BUSINESS
                                 
    29                           ; INTERRUPTION) HOWSOEVER CAUSED AND ON ANY THEORY OF LIABILITY, WHETHER IN CONTRACT, ST
                                 RICT
    30                           ; LIABILITY, OR TORT (INCLUDING NEGLIGENCE OR OTHERWISE) ARISING IN ANY WAY OUT OF THE U
                                 SE OF
    31                           ; THIS SOFTWARE, EVEN IF ADVISED OF THE POSSIBILITY OF SUCH DAMAGE.
    32                           ; 
    33                           
    34                           
    35                           ; 
    36                           ; Code-generator required, PIC16F887 Definitions
    37                           ; 
    38  0004                     fsr0 equ 04h
    39  0004                     indf equ 00h
    40  0000                     indf0 equ 00h
    41  0000                     pc equ 02h
    42  0002                     pcl equ 02h
    43  0002                     pclath equ 0Ah
    44  000A                     status equ 03h
    45  0003                     
     2                           opt pagewidth 120
     3  0000                     byte0	macro	val
     4                           	(getbyte(val,0))
     5                           endm
     6  0000                     byte1	macro	val
     7                           	(getbyte(val,1))
     8                           endm
     9  0000                     byte2	macro	val
    10                           	(getbyte(val,2))
    11                           endm
    12  0000                     byte3	macro	val
    13                           	(getbyte(val,3))
    14                           endm
    15  0000                     byte4	macro	val
    16                           	(getbyte(val,4))
    17                           endm
    18  0000                     byte5	macro	val
    19                           	(getbyte(val,5))
    20                           endm
    21  0000                     byte6	macro	val
    22                           	(getbyte(val,6))
    23                           endm
    24  0000                     byte7	macro	val
    25                           	(getbyte(val,7))
    26                           endm
    27  0000                     getword	macro	val,pos
    28                           	(((val) >> (8 * pos)) and 0xffff)
    29                           endm
    30  0000                     word0	macro	val
    31                           	(getword(val,0))
    32                           endm
    33  0000                     word1	macro	val
    34                           	(getword(val,2))
    35                           endm
    36  0000                     word2	macro	val
    37                           	(getword(val,4))
    38                           endm
    39  0000                     word3	macro	val
    40                           	(getword(val,6))
    41                           endm
    42  0000                     gettword	macro	val,pos
    43                           	(((val) >> (8 * pos)) and 0xffffff)
    44                           endm
    45  0000                     tword0	macro	val
    46                           	(gettword(val,0))
    47                           endm
    48  0000                     tword1	macro	val
    49                           	(gettword(val,3))
    50                           endm
    51  0000                     tword2	macro	val
    52                           	(gettword(val,6))
    53                           endm
    54  0000                     getdword	macro	val,pos
    55                           	(((val) >> (8 * pos)) and 0xffffffff)
    56                           endm
    57  0000                     dword0	macro	val
    58                           	(getdword(val,0))
    59                           endm
    60  0000                     dword1	macro	val
    61                           	(getdword(val,4))
    62                           endm
    63  0000                     clrc	macro
    64                           	bcf	3,0
    65                           	endm
    66  0000                     clrz	macro
    67                           	bcf	3,2
    68                           	endm
    69  0000                     setc	macro
    70                           	bsf	3,0
    71                           	endm
    72  0000                     setz	macro
    73                           	bsf	3,2
    74                           	endm
    75  0000                     skipc	macro
    76                           	btfss	3,0
    77                           	endm
    78  0000                     skipz	macro
    79                           	btfss	3,2
    80                           	endm
    81  0000                     skipnc	macro
    82                           	btfsc	3,0
    83                           	endm
    84  0000                     skipnz	macro
    85                           	btfsc	3,2
    86                           	endm
    87  0000                     # 54 "C:\Program Files (x86)\Microchip\xc8\v2.00\pic\include\pic16f887.h"
    88                           INDF equ 00h ;# 
    89  0000                     # 61 "C:\Program Files (x86)\Microchip\xc8\v2.00\pic\include\pic16f887.h"
    90                           TMR0 equ 01h ;# 
    91  0001                     # 68 "C:\Program Files (x86)\Microchip\xc8\v2.00\pic\include\pic16f887.h"
    92                           PCL equ 02h ;# 
    93  0002                     # 75 "C:\Program Files (x86)\Microchip\xc8\v2.00\pic\include\pic16f887.h"
    94                           STATUS equ 03h ;# 
    95  0003                     # 161 "C:\Program Files (x86)\Microchip\xc8\v2.00\pic\include\pic16f887.h"
    96                           FSR equ 04h ;# 
    97  0004                     # 168 "C:\Program Files (x86)\Microchip\xc8\v2.00\pic\include\pic16f887.h"
    98                           PORTA equ 05h ;# 
    99  0005                     # 230 "C:\Program Files (x86)\Microchip\xc8\v2.00\pic\include\pic16f887.h"
   100                           PORTB equ 06h ;# 
   101  0006                     # 292 "C:\Program Files (x86)\Microchip\xc8\v2.00\pic\include\pic16f887.h"
   102                           PORTC equ 07h ;# 
   103  0007                     # 354 "C:\Program Files (x86)\Microchip\xc8\v2.00\pic\include\pic16f887.h"
   104                           PORTD equ 08h ;# 
   105  0008                     # 416 "C:\Program Files (x86)\Microchip\xc8\v2.00\pic\include\pic16f887.h"
   106                           PORTE equ 09h ;# 
   107  0009                     # 454 "C:\Program Files (x86)\Microchip\xc8\v2.00\pic\include\pic16f887.h"
   108                           PCLATH equ 0Ah ;# 
   109  000A                     # 461 "C:\Program Files (x86)\Microchip\xc8\v2.00\pic\include\pic16f887.h"
   110                           INTCON equ 0Bh ;# 
   111  000B                     # 539 "C:\Program Files (x86)\Microchip\xc8\v2.00\pic\include\pic16f887.h"
   112                           PIR1 equ 0Ch ;# 
   113  000C                     # 595 "C:\Program Files (x86)\Microchip\xc8\v2.00\pic\include\pic16f887.h"
   114                           PIR2 equ 0Dh ;# 
   115  000D                     # 652 "C:\Program Files (x86)\Microchip\xc8\v2.00\pic\include\pic16f887.h"
   116                           TMR1 equ 0Eh ;# 
   117  000E                     # 659 "C:\Program Files (x86)\Microchip\xc8\v2.00\pic\include\pic16f887.h"
   118                           TMR1L equ 0Eh ;# 
   119  000E                     # 666 "C:\Program Files (x86)\Microchip\xc8\v2.00\pic\include\pic16f887.h"
   120                           TMR1H equ 0Fh ;# 
   121  000F                     # 673 "C:\Program Files (x86)\Microchip\xc8\v2.00\pic\include\pic16f887.h"
   122                           T1CON equ 010h ;# 
   123  0010                     # 767 "C:\Program Files (x86)\Microchip\xc8\v2.00\pic\include\pic16f887.h"
   124                           TMR2 equ 011h ;# 
   125  0011                     # 774 "C:\Program Files (x86)\Microchip\xc8\v2.00\pic\include\pic16f887.h"
   126                           T2CON equ 012h ;# 
   127  0012                     # 845 "C:\Program Files (x86)\Microchip\xc8\v2.00\pic\include\pic16f887.h"
   128                           SSPBUF equ 013h ;# 
   129  0013                     # 852 "C:\Program Files (x86)\Microchip\xc8\v2.00\pic\include\pic16f887.h"
   130                           SSPCON equ 014h ;# 
   131  0014                     # 922 "C:\Program Files (x86)\Microchip\xc8\v2.00\pic\include\pic16f887.h"
   132                           CCPR1 equ 015h ;# 
   133  0015                     # 929 "C:\Program Files (x86)\Microchip\xc8\v2.00\pic\include\pic16f887.h"
   134                           CCPR1L equ 015h ;# 
   135  0015                     # 936 "C:\Program Files (x86)\Microchip\xc8\v2.00\pic\include\pic16f887.h"
   136                           CCPR1H equ 016h ;# 
   137  0016                     # 943 "C:\Program Files (x86)\Microchip\xc8\v2.00\pic\include\pic16f887.h"
   138                           CCP1CON equ 017h ;# 
   139  0017                     # 1040 "C:\Program Files (x86)\Microchip\xc8\v2.00\pic\include\pic16f887.h"
   140                           RCSTA equ 018h ;# 
   141  0018                     # 1135 "C:\Program Files (x86)\Microchip\xc8\v2.00\pic\include\pic16f887.h"
   142                           TXREG equ 019h ;# 
   143  0019                     # 1142 "C:\Program Files (x86)\Microchip\xc8\v2.00\pic\include\pic16f887.h"
   144                           RCREG equ 01Ah ;# 
   145  001A                     # 1149 "C:\Program Files (x86)\Microchip\xc8\v2.00\pic\include\pic16f887.h"
   146                           CCPR2 equ 01Bh ;# 
   147  001B                     # 1156 "C:\Program Files (x86)\Microchip\xc8\v2.00\pic\include\pic16f887.h"
   148                           CCPR2L equ 01Bh ;# 
   149  001B                     # 1163 "C:\Program Files (x86)\Microchip\xc8\v2.00\pic\include\pic16f887.h"
   150                           CCPR2H equ 01Ch ;# 
   151  001C                     # 1170 "C:\Program Files (x86)\Microchip\xc8\v2.00\pic\include\pic16f887.h"
   152                           CCP2CON equ 01Dh ;# 
   153  001D                     # 1240 "C:\Program Files (x86)\Microchip\xc8\v2.00\pic\include\pic16f887.h"
   154                           ADRESH equ 01Eh ;# 
   155  001E                     # 1247 "C:\Program Files (x86)\Microchip\xc8\v2.00\pic\include\pic16f887.h"
   156                           ADCON0 equ 01Fh ;# 
   157  001F                     # 1348 "C:\Program Files (x86)\Microchip\xc8\v2.00\pic\include\pic16f887.h"
   158                           OPTION_REG equ 081h ;# 
   159  0081                     # 1418 "C:\Program Files (x86)\Microchip\xc8\v2.00\pic\include\pic16f887.h"
   160                           TRISA equ 085h ;# 
   161  0085                     # 1480 "C:\Program Files (x86)\Microchip\xc8\v2.00\pic\include\pic16f887.h"
   162                           TRISB equ 086h ;# 
   163  0086                     # 1542 "C:\Program Files (x86)\Microchip\xc8\v2.00\pic\include\pic16f887.h"
   164                           TRISC equ 087h ;# 
   165  0087                     # 1604 "C:\Program Files (x86)\Microchip\xc8\v2.00\pic\include\pic16f887.h"
   166                           TRISD equ 088h ;# 
   167  0088                     # 1666 "C:\Program Files (x86)\Microchip\xc8\v2.00\pic\include\pic16f887.h"
   168                           TRISE equ 089h ;# 
   169  0089                     # 1704 "C:\Program Files (x86)\Microchip\xc8\v2.00\pic\include\pic16f887.h"
   170                           PIE1 equ 08Ch ;# 
   171  008C                     # 1760 "C:\Program Files (x86)\Microchip\xc8\v2.00\pic\include\pic16f887.h"
   172                           PIE2 equ 08Dh ;# 
   173  008D                     # 1817 "C:\Program Files (x86)\Microchip\xc8\v2.00\pic\include\pic16f887.h"
   174                           PCON equ 08Eh ;# 
   175  008E                     # 1864 "C:\Program Files (x86)\Microchip\xc8\v2.00\pic\include\pic16f887.h"
   176                           OSCCON equ 08Fh ;# 
   177  008F                     # 1929 "C:\Program Files (x86)\Microchip\xc8\v2.00\pic\include\pic16f887.h"
   178                           OSCTUNE equ 090h ;# 
   179  0090                     # 1981 "C:\Program Files (x86)\Microchip\xc8\v2.00\pic\include\pic16f887.h"
   180                           SSPCON2 equ 091h ;# 
   181  0091                     # 2043 "C:\Program Files (x86)\Microchip\xc8\v2.00\pic\include\pic16f887.h"
   182                           PR2 equ 092h ;# 
   183  0092                     # 2050 "C:\Program Files (x86)\Microchip\xc8\v2.00\pic\include\pic16f887.h"
   184                           SSPADD equ 093h ;# 
   185  0093                     # 2057 "C:\Program Files (x86)\Microchip\xc8\v2.00\pic\include\pic16f887.h"
   186                           SSPMSK equ 093h ;# 
   187  0093                     # 2062 "C:\Program Files (x86)\Microchip\xc8\v2.00\pic\include\pic16f887.h"
   188                           MSK equ 093h ;# 
   189  0093                     # 2179 "C:\Program Files (x86)\Microchip\xc8\v2.00\pic\include\pic16f887.h"
   190                           SSPSTAT equ 094h ;# 
   191  0094                     # 2348 "C:\Program Files (x86)\Microchip\xc8\v2.00\pic\include\pic16f887.h"
   192                           WPUB equ 095h ;# 
   193  0095                     # 2418 "C:\Program Files (x86)\Microchip\xc8\v2.00\pic\include\pic16f887.h"
   194                           IOCB equ 096h ;# 
   195  0096                     # 2488 "C:\Program Files (x86)\Microchip\xc8\v2.00\pic\include\pic16f887.h"
   196                           VRCON equ 097h ;# 
   197  0097                     # 2558 "C:\Program Files (x86)\Microchip\xc8\v2.00\pic\include\pic16f887.h"
   198                           TXSTA equ 098h ;# 
   199  0098                     # 2644 "C:\Program Files (x86)\Microchip\xc8\v2.00\pic\include\pic16f887.h"
   200                           SPBRG equ 099h ;# 
   201  0099                     # 2706 "C:\Program Files (x86)\Microchip\xc8\v2.00\pic\include\pic16f887.h"
   202                           SPBRGH equ 09Ah ;# 
   203  009A                     # 2776 "C:\Program Files (x86)\Microchip\xc8\v2.00\pic\include\pic16f887.h"
   204                           PWM1CON equ 09Bh ;# 
   205  009B                     # 2846 "C:\Program Files (x86)\Microchip\xc8\v2.00\pic\include\pic16f887.h"
   206                           ECCPAS equ 09Ch ;# 
   207  009C                     # 2928 "C:\Program Files (x86)\Microchip\xc8\v2.00\pic\include\pic16f887.h"
   208                           PSTRCON equ 09Dh ;# 
   209  009D                     # 2972 "C:\Program Files (x86)\Microchip\xc8\v2.00\pic\include\pic16f887.h"
   210                           ADRESL equ 09Eh ;# 
   211  009E                     # 2979 "C:\Program Files (x86)\Microchip\xc8\v2.00\pic\include\pic16f887.h"
   212                           ADCON1 equ 09Fh ;# 
   213  009F                     # 3013 "C:\Program Files (x86)\Microchip\xc8\v2.00\pic\include\pic16f887.h"
   214                           WDTCON equ 0105h ;# 
   215  0105                     # 3066 "C:\Program Files (x86)\Microchip\xc8\v2.00\pic\include\pic16f887.h"
   216                           CM1CON0 equ 0107h ;# 
   217  0107                     # 3131 "C:\Program Files (x86)\Microchip\xc8\v2.00\pic\include\pic16f887.h"
   218                           CM2CON0 equ 0108h ;# 
   219  0108                     # 3196 "C:\Program Files (x86)\Microchip\xc8\v2.00\pic\include\pic16f887.h"
   220                           CM2CON1 equ 0109h ;# 
   221  0109                     # 3247 "C:\Program Files (x86)\Microchip\xc8\v2.00\pic\include\pic16f887.h"
   222                           EEDATA equ 010Ch ;# 
   223  010C                     # 3252 "C:\Program Files (x86)\Microchip\xc8\v2.00\pic\include\pic16f887.h"
   224                           EEDAT equ 010Ch ;# 
   225  010C                     # 3259 "C:\Program Files (x86)\Microchip\xc8\v2.00\pic\include\pic16f887.h"
   226                           EEADR equ 010Dh ;# 
   227  010D                     # 3266 "C:\Program Files (x86)\Microchip\xc8\v2.00\pic\include\pic16f887.h"
   228                           EEDATH equ 010Eh ;# 
   229  010E                     # 3273 "C:\Program Files (x86)\Microchip\xc8\v2.00\pic\include\pic16f887.h"
   230                           EEADRH equ 010Fh ;# 
   231  010F                     # 3280 "C:\Program Files (x86)\Microchip\xc8\v2.00\pic\include\pic16f887.h"
   232                           SRCON equ 0185h ;# 
   233  0185                     # 3337 "C:\Program Files (x86)\Microchip\xc8\v2.00\pic\include\pic16f887.h"
   234                           BAUDCTL equ 0187h ;# 
   235  0187                     # 3389 "C:\Program Files (x86)\Microchip\xc8\v2.00\pic\include\pic16f887.h"
   236                           ANSEL equ 0188h ;# 
   237  0188                     # 3451 "C:\Program Files (x86)\Microchip\xc8\v2.00\pic\include\pic16f887.h"
   238                           ANSELH equ 0189h ;# 
   239  0189                     # 3501 "C:\Program Files (x86)\Microchip\xc8\v2.00\pic\include\pic16f887.h"
   240                           EECON1 equ 018Ch ;# 
   241  018C                     # 3546 "C:\Program Files (x86)\Microchip\xc8\v2.00\pic\include\pic16f887.h"
   242                           EECON2 equ 018Dh ;# 
   243  018D                     # 54 "C:\Program Files (x86)\Microchip\xc8\v2.00\pic\include\pic16f887.h"
   244                           INDF equ 00h ;# 
   245  0000                     # 61 "C:\Program Files (x86)\Microchip\xc8\v2.00\pic\include\pic16f887.h"
   246                           TMR0 equ 01h ;# 
   247  0001                     # 68 "C:\Program Files (x86)\Microchip\xc8\v2.00\pic\include\pic16f887.h"
   248                           PCL equ 02h ;# 
   249  0002                     # 75 "C:\Program Files (x86)\Microchip\xc8\v2.00\pic\include\pic16f887.h"
   250                           STATUS equ 03h ;# 
   251  0003                     # 161 "C:\Program Files (x86)\Microchip\xc8\v2.00\pic\include\pic16f887.h"
   252                           FSR equ 04h ;# 
   253  0004                     # 168 "C:\Program Files (x86)\Microchip\xc8\v2.00\pic\include\pic16f887.h"
   254                           PORTA equ 05h ;# 
   255  0005                     # 230 "C:\Program Files (x86)\Microchip\xc8\v2.00\pic\include\pic16f887.h"
   256                           PORTB equ 06h ;# 
   257  0006                     # 292 "C:\Program Files (x86)\Microchip\xc8\v2.00\pic\include\pic16f887.h"
   258                           PORTC equ 07h ;# 
   259  0007                     # 354 "C:\Program Files (x86)\Microchip\xc8\v2.00\pic\include\pic16f887.h"
   260                           PORTD equ 08h ;# 
   261  0008                     # 416 "C:\Program Files (x86)\Microchip\xc8\v2.00\pic\include\pic16f887.h"
   262                           PORTE equ 09h ;# 
   263  0009                     # 454 "C:\Program Files (x86)\Microchip\xc8\v2.00\pic\include\pic16f887.h"
   264                           PCLATH equ 0Ah ;# 
   265  000A                     # 461 "C:\Program Files (x86)\Microchip\xc8\v2.00\pic\include\pic16f887.h"
   266                           INTCON equ 0Bh ;# 
   267  000B                     # 539 "C:\Program Files (x86)\Microchip\xc8\v2.00\pic\include\pic16f887.h"
   268                           PIR1 equ 0Ch ;# 
   269  000C                     # 595 "C:\Program Files (x86)\Microchip\xc8\v2.00\pic\include\pic16f887.h"
   270                           PIR2 equ 0Dh ;# 
   271  000D                     # 652 "C:\Program Files (x86)\Microchip\xc8\v2.00\pic\include\pic16f887.h"
   272                           TMR1 equ 0Eh ;# 
   273  000E                     # 659 "C:\Program Files (x86)\Microchip\xc8\v2.00\pic\include\pic16f887.h"
   274                           TMR1L equ 0Eh ;# 
   275  000E                     # 666 "C:\Program Files (x86)\Microchip\xc8\v2.00\pic\include\pic16f887.h"
   276                           TMR1H equ 0Fh ;# 
   277  000F                     # 673 "C:\Program Files (x86)\Microchip\xc8\v2.00\pic\include\pic16f887.h"
   278                           T1CON equ 010h ;# 
   279  0010                     # 767 "C:\Program Files (x86)\Microchip\xc8\v2.00\pic\include\pic16f887.h"
   280                           TMR2 equ 011h ;# 
   281  0011                     # 774 "C:\Program Files (x86)\Microchip\xc8\v2.00\pic\include\pic16f887.h"
   282                           T2CON equ 012h ;# 
   283  0012                     # 845 "C:\Program Files (x86)\Microchip\xc8\v2.00\pic\include\pic16f887.h"
   284                           SSPBUF equ 013h ;# 
   285  0013                     # 852 "C:\Program Files (x86)\Microchip\xc8\v2.00\pic\include\pic16f887.h"
   286                           SSPCON equ 014h ;# 
   287  0014                     # 922 "C:\Program Files (x86)\Microchip\xc8\v2.00\pic\include\pic16f887.h"
   288                           CCPR1 equ 015h ;# 
   289  0015                     # 929 "C:\Program Files (x86)\Microchip\xc8\v2.00\pic\include\pic16f887.h"
   290                           CCPR1L equ 015h ;# 
   291  0015                     # 936 "C:\Program Files (x86)\Microchip\xc8\v2.00\pic\include\pic16f887.h"
   292                           CCPR1H equ 016h ;# 
   293  0016                     # 943 "C:\Program Files (x86)\Microchip\xc8\v2.00\pic\include\pic16f887.h"
   294                           CCP1CON equ 017h ;# 
   295  0017                     # 1040 "C:\Program Files (x86)\Microchip\xc8\v2.00\pic\include\pic16f887.h"
   296                           RCSTA equ 018h ;# 
   297  0018                     # 1135 "C:\Program Files (x86)\Microchip\xc8\v2.00\pic\include\pic16f887.h"
   298                           TXREG equ 019h ;# 
   299  0019                     # 1142 "C:\Program Files (x86)\Microchip\xc8\v2.00\pic\include\pic16f887.h"
   300                           RCREG equ 01Ah ;# 
   301  001A                     # 1149 "C:\Program Files (x86)\Microchip\xc8\v2.00\pic\include\pic16f887.h"
   302                           CCPR2 equ 01Bh ;# 
   303  001B                     # 1156 "C:\Program Files (x86)\Microchip\xc8\v2.00\pic\include\pic16f887.h"
   304                           CCPR2L equ 01Bh ;# 
   305  001B                     # 1163 "C:\Program Files (x86)\Microchip\xc8\v2.00\pic\include\pic16f887.h"
   306                           CCPR2H equ 01Ch ;# 
   307  001C                     # 1170 "C:\Program Files (x86)\Microchip\xc8\v2.00\pic\include\pic16f887.h"
   308                           CCP2CON equ 01Dh ;# 
   309  001D                     # 1240 "C:\Program Files (x86)\Microchip\xc8\v2.00\pic\include\pic16f887.h"
   310                           ADRESH equ 01Eh ;# 
   311  001E                     # 1247 "C:\Program Files (x86)\Microchip\xc8\v2.00\pic\include\pic16f887.h"
   312                           ADCON0 equ 01Fh ;# 
   313  001F                     # 1348 "C:\Program Files (x86)\Microchip\xc8\v2.00\pic\include\pic16f887.h"
   314                           OPTION_REG equ 081h ;# 
   315  0081                     # 1418 "C:\Program Files (x86)\Microchip\xc8\v2.00\pic\include\pic16f887.h"
   316                           TRISA equ 085h ;# 
   317  0085                     # 1480 "C:\Program Files (x86)\Microchip\xc8\v2.00\pic\include\pic16f887.h"
   318                           TRISB equ 086h ;# 
   319  0086                     # 1542 "C:\Program Files (x86)\Microchip\xc8\v2.00\pic\include\pic16f887.h"
   320                           TRISC equ 087h ;# 
   321  0087                     # 1604 "C:\Program Files (x86)\Microchip\xc8\v2.00\pic\include\pic16f887.h"
   322                           TRISD equ 088h ;# 
   323  0088                     # 1666 "C:\Program Files (x86)\Microchip\xc8\v2.00\pic\include\pic16f887.h"
   324                           TRISE equ 089h ;# 
   325  0089                     # 1704 "C:\Program Files (x86)\Microchip\xc8\v2.00\pic\include\pic16f887.h"
   326                           PIE1 equ 08Ch ;# 
   327  008C                     # 1760 "C:\Program Files (x86)\Microchip\xc8\v2.00\pic\include\pic16f887.h"
   328                           PIE2 equ 08Dh ;# 
   329  008D                     # 1817 "C:\Program Files (x86)\Microchip\xc8\v2.00\pic\include\pic16f887.h"
   330                           PCON equ 08Eh ;# 
   331  008E                     # 1864 "C:\Program Files (x86)\Microchip\xc8\v2.00\pic\include\pic16f887.h"
   332                           OSCCON equ 08Fh ;# 
   333  008F                     # 1929 "C:\Program Files (x86)\Microchip\xc8\v2.00\pic\include\pic16f887.h"
   334                           OSCTUNE equ 090h ;# 
   335  0090                     # 1981 "C:\Program Files (x86)\Microchip\xc8\v2.00\pic\include\pic16f887.h"
   336                           SSPCON2 equ 091h ;# 
   337  0091                     # 2043 "C:\Program Files (x86)\Microchip\xc8\v2.00\pic\include\pic16f887.h"
   338                           PR2 equ 092h ;# 
   339  0092                     # 2050 "C:\Program Files (x86)\Microchip\xc8\v2.00\pic\include\pic16f887.h"
   340                           SSPADD equ 093h ;# 
   341  0093                     # 2057 "C:\Program Files (x86)\Microchip\xc8\v2.00\pic\include\pic16f887.h"
   342                           SSPMSK equ 093h ;# 
   343  0093                     # 2062 "C:\Program Files (x86)\Microchip\xc8\v2.00\pic\include\pic16f887.h"
   344                           MSK equ 093h ;# 
   345  0093                     # 2179 "C:\Program Files (x86)\Microchip\xc8\v2.00\pic\include\pic16f887.h"
   346                           SSPSTAT equ 094h ;# 
   347  0094                     # 2348 "C:\Program Files (x86)\Microchip\xc8\v2.00\pic\include\pic16f887.h"
   348                           WPUB equ 095h ;# 
   349  0095                     # 2418 "C:\Program Files (x86)\Microchip\xc8\v2.00\pic\include\pic16f887.h"
   350                           IOCB equ 096h ;# 
   351  0096                     # 2488 "C:\Program Files (x86)\Microchip\xc8\v2.00\pic\include\pic16f887.h"
   352                           VRCON equ 097h ;# 
   353  0097                     # 2558 "C:\Program Files (x86)\Microchip\xc8\v2.00\pic\include\pic16f887.h"
   354                           TXSTA equ 098h ;# 
   355  0098                     # 2644 "C:\Program Files (x86)\Microchip\xc8\v2.00\pic\include\pic16f887.h"
   356                           SPBRG equ 099h ;# 
   357  0099                     # 2706 "C:\Program Files (x86)\Microchip\xc8\v2.00\pic\include\pic16f887.h"
   358                           SPBRGH equ 09Ah ;# 
   359  009A                     # 2776 "C:\Program Files (x86)\Microchip\xc8\v2.00\pic\include\pic16f887.h"
   360                           PWM1CON equ 09Bh ;# 
   361  009B                     # 2846 "C:\Program Files (x86)\Microchip\xc8\v2.00\pic\include\pic16f887.h"
   362                           ECCPAS equ 09Ch ;# 
   363  009C                     # 2928 "C:\Program Files (x86)\Microchip\xc8\v2.00\pic\include\pic16f887.h"
   364                           PSTRCON equ 09Dh ;# 
   365  009D                     # 2972 "C:\Program Files (x86)\Microchip\xc8\v2.00\pic\include\pic16f887.h"
   366                           ADRESL equ 09Eh ;# 
   367  009E                     # 2979 "C:\Program Files (x86)\Microchip\xc8\v2.00\pic\include\pic16f887.h"
   368                           ADCON1 equ 09Fh ;# 
   369  009F                     # 3013 "C:\Program Files (x86)\Microchip\xc8\v2.00\pic\include\pic16f887.h"
   370                           WDTCON equ 0105h ;# 
   371  0105                     # 3066 "C:\Program Files (x86)\Microchip\xc8\v2.00\pic\include\pic16f887.h"
   372                           CM1CON0 equ 0107h ;# 
   373  0107                     # 3131 "C:\Program Files (x86)\Microchip\xc8\v2.00\pic\include\pic16f887.h"
   374                           CM2CON0 equ 0108h ;# 
   375  0108                     # 3196 "C:\Program Files (x86)\Microchip\xc8\v2.00\pic\include\pic16f887.h"
   376                           CM2CON1 equ 0109h ;# 
   377  0109                     # 3247 "C:\Program Files (x86)\Microchip\xc8\v2.00\pic\include\pic16f887.h"
   378                           EEDATA equ 010Ch ;# 
   379  010C                     # 3252 "C:\Program Files (x86)\Microchip\xc8\v2.00\pic\include\pic16f887.h"
   380                           EEDAT equ 010Ch ;# 
   381  010C                     # 3259 "C:\Program Files (x86)\Microchip\xc8\v2.00\pic\include\pic16f887.h"
   382                           EEADR equ 010Dh ;# 
   383  010D                     # 3266 "C:\Program Files (x86)\Microchip\xc8\v2.00\pic\include\pic16f887.h"
   384                           EEDATH equ 010Eh ;# 
   385  010E                     # 3273 "C:\Program Files (x86)\Microchip\xc8\v2.00\pic\include\pic16f887.h"
   386                           EEADRH equ 010Fh ;# 
   387  010F                     # 3280 "C:\Program Files (x86)\Microchip\xc8\v2.00\pic\include\pic16f887.h"
   388                           SRCON equ 0185h ;# 
   389  0185                     # 3337 "C:\Program Files (x86)\Microchip\xc8\v2.00\pic\include\pic16f887.h"
   390                           BAUDCTL equ 0187h ;# 
   391  0187                     # 3389 "C:\Program Files (x86)\Microchip\xc8\v2.00\pic\include\pic16f887.h"
   392                           ANSEL equ 0188h ;# 
   393  0188                     # 3451 "C:\Program Files (x86)\Microchip\xc8\v2.00\pic\include\pic16f887.h"
   394                           ANSELH equ 0189h ;# 
   395  0189                     # 3501 "C:\Program Files (x86)\Microchip\xc8\v2.00\pic\include\pic16f887.h"
   396                           EECON1 equ 018Ch ;# 
   397  018C                     # 3546 "C:\Program Files (x86)\Microchip\xc8\v2.00\pic\include\pic16f887.h"
   398                           EECON2 equ 018Dh ;# 
   399  018D                     # 54 "C:\Program Files (x86)\Microchip\xc8\v2.00\pic\include\pic16f887.h"
   400                           INDF equ 00h ;# 
   401  0000                     # 61 "C:\Program Files (x86)\Microchip\xc8\v2.00\pic\include\pic16f887.h"
   402                           TMR0 equ 01h ;# 
   403  0001                     # 68 "C:\Program Files (x86)\Microchip\xc8\v2.00\pic\include\pic16f887.h"
   404                           PCL equ 02h ;# 
   405  0002                     # 75 "C:\Program Files (x86)\Microchip\xc8\v2.00\pic\include\pic16f887.h"
   406                           STATUS equ 03h ;# 
   407  0003                     # 161 "C:\Program Files (x86)\Microchip\xc8\v2.00\pic\include\pic16f887.h"
   408                           FSR equ 04h ;# 
   409  0004                     # 168 "C:\Program Files (x86)\Microchip\xc8\v2.00\pic\include\pic16f887.h"
   410                           PORTA equ 05h ;# 
   411  0005                     # 230 "C:\Program Files (x86)\Microchip\xc8\v2.00\pic\include\pic16f887.h"
   412                           PORTB equ 06h ;# 
   413  0006                     # 292 "C:\Program Files (x86)\Microchip\xc8\v2.00\pic\include\pic16f887.h"
   414                           PORTC equ 07h ;# 
   415  0007                     # 354 "C:\Program Files (x86)\Microchip\xc8\v2.00\pic\include\pic16f887.h"
   416                           PORTD equ 08h ;# 
   417  0008                     # 416 "C:\Program Files (x86)\Microchip\xc8\v2.00\pic\include\pic16f887.h"
   418                           PORTE equ 09h ;# 
   419  0009                     # 454 "C:\Program Files (x86)\Microchip\xc8\v2.00\pic\include\pic16f887.h"
   420                           PCLATH equ 0Ah ;# 
   421  000A                     # 461 "C:\Program Files (x86)\Microchip\xc8\v2.00\pic\include\pic16f887.h"
   422                           INTCON equ 0Bh ;# 
   423  000B                     # 539 "C:\Program Files (x86)\Microchip\xc8\v2.00\pic\include\pic16f887.h"
   424                           PIR1 equ 0Ch ;# 
   425  000C                     # 595 "C:\Program Files (x86)\Microchip\xc8\v2.00\pic\include\pic16f887.h"
   426                           PIR2 equ 0Dh ;# 
   427  000D                     # 652 "C:\Program Files (x86)\Microchip\xc8\v2.00\pic\include\pic16f887.h"
   428                           TMR1 equ 0Eh ;# 
   429  000E                     # 659 "C:\Program Files (x86)\Microchip\xc8\v2.00\pic\include\pic16f887.h"
   430                           TMR1L equ 0Eh ;# 
   431  000E                     # 666 "C:\Program Files (x86)\Microchip\xc8\v2.00\pic\include\pic16f887.h"
   432                           TMR1H equ 0Fh ;# 
   433  000F                     # 673 "C:\Program Files (x86)\Microchip\xc8\v2.00\pic\include\pic16f887.h"
   434                           T1CON equ 010h ;# 
   435  0010                     # 767 "C:\Program Files (x86)\Microchip\xc8\v2.00\pic\include\pic16f887.h"
   436                           TMR2 equ 011h ;# 
   437  0011                     # 774 "C:\Program Files (x86)\Microchip\xc8\v2.00\pic\include\pic16f887.h"
   438                           T2CON equ 012h ;# 
   439  0012                     # 845 "C:\Program Files (x86)\Microchip\xc8\v2.00\pic\include\pic16f887.h"
   440                           SSPBUF equ 013h ;# 
   441  0013                     # 852 "C:\Program Files (x86)\Microchip\xc8\v2.00\pic\include\pic16f887.h"
   442                           SSPCON equ 014h ;# 
   443  0014                     # 922 "C:\Program Files (x86)\Microchip\xc8\v2.00\pic\include\pic16f887.h"
   444                           CCPR1 equ 015h ;# 
   445  0015                     # 929 "C:\Program Files (x86)\Microchip\xc8\v2.00\pic\include\pic16f887.h"
   446                           CCPR1L equ 015h ;# 
   447  0015                     # 936 "C:\Program Files (x86)\Microchip\xc8\v2.00\pic\include\pic16f887.h"
   448                           CCPR1H equ 016h ;# 
   449  0016                     # 943 "C:\Program Files (x86)\Microchip\xc8\v2.00\pic\include\pic16f887.h"
   450                           CCP1CON equ 017h ;# 
   451  0017                     # 1040 "C:\Program Files (x86)\Microchip\xc8\v2.00\pic\include\pic16f887.h"
   452                           RCSTA equ 018h ;# 
   453  0018                     # 1135 "C:\Program Files (x86)\Microchip\xc8\v2.00\pic\include\pic16f887.h"
   454                           TXREG equ 019h ;# 
   455  0019                     # 1142 "C:\Program Files (x86)\Microchip\xc8\v2.00\pic\include\pic16f887.h"
   456                           RCREG equ 01Ah ;# 
   457  001A                     # 1149 "C:\Program Files (x86)\Microchip\xc8\v2.00\pic\include\pic16f887.h"
   458                           CCPR2 equ 01Bh ;# 
   459  001B                     # 1156 "C:\Program Files (x86)\Microchip\xc8\v2.00\pic\include\pic16f887.h"
   460                           CCPR2L equ 01Bh ;# 
   461  001B                     # 1163 "C:\Program Files (x86)\Microchip\xc8\v2.00\pic\include\pic16f887.h"
   462                           CCPR2H equ 01Ch ;# 
   463  001C                     # 1170 "C:\Program Files (x86)\Microchip\xc8\v2.00\pic\include\pic16f887.h"
   464                           CCP2CON equ 01Dh ;# 
   465  001D                     # 1240 "C:\Program Files (x86)\Microchip\xc8\v2.00\pic\include\pic16f887.h"
   466                           ADRESH equ 01Eh ;# 
   467  001E                     # 1247 "C:\Program Files (x86)\Microchip\xc8\v2.00\pic\include\pic16f887.h"
   468                           ADCON0 equ 01Fh ;# 
   469  001F                     # 1348 "C:\Program Files (x86)\Microchip\xc8\v2.00\pic\include\pic16f887.h"
   470                           OPTION_REG equ 081h ;# 
   471  0081                     # 1418 "C:\Program Files (x86)\Microchip\xc8\v2.00\pic\include\pic16f887.h"
   472                           TRISA equ 085h ;# 
   473  0085                     # 1480 "C:\Program Files (x86)\Microchip\xc8\v2.00\pic\include\pic16f887.h"
   474                           TRISB equ 086h ;# 
   475  0086                     # 1542 "C:\Program Files (x86)\Microchip\xc8\v2.00\pic\include\pic16f887.h"
   476                           TRISC equ 087h ;# 
   477  0087                     # 1604 "C:\Program Files (x86)\Microchip\xc8\v2.00\pic\include\pic16f887.h"
   478                           TRISD equ 088h ;# 
   479  0088                     # 1666 "C:\Program Files (x86)\Microchip\xc8\v2.00\pic\include\pic16f887.h"
   480                           TRISE equ 089h ;# 
   481  0089                     # 1704 "C:\Program Files (x86)\Microchip\xc8\v2.00\pic\include\pic16f887.h"
   482                           PIE1 equ 08Ch ;# 
   483  008C                     # 1760 "C:\Program Files (x86)\Microchip\xc8\v2.00\pic\include\pic16f887.h"
   484                           PIE2 equ 08Dh ;# 
   485  008D                     # 1817 "C:\Program Files (x86)\Microchip\xc8\v2.00\pic\include\pic16f887.h"
   486                           PCON equ 08Eh ;# 
   487  008E                     # 1864 "C:\Program Files (x86)\Microchip\xc8\v2.00\pic\include\pic16f887.h"
   488                           OSCCON equ 08Fh ;# 
   489  008F                     # 1929 "C:\Program Files (x86)\Microchip\xc8\v2.00\pic\include\pic16f887.h"
   490                           OSCTUNE equ 090h ;# 
   491  0090                     # 1981 "C:\Program Files (x86)\Microchip\xc8\v2.00\pic\include\pic16f887.h"
   492                           SSPCON2 equ 091h ;# 
   493  0091                     # 2043 "C:\Program Files (x86)\Microchip\xc8\v2.00\pic\include\pic16f887.h"
   494                           PR2 equ 092h ;# 
   495  0092                     # 2050 "C:\Program Files (x86)\Microchip\xc8\v2.00\pic\include\pic16f887.h"
   496                           SSPADD equ 093h ;# 
   497  0093                     # 2057 "C:\Program Files (x86)\Microchip\xc8\v2.00\pic\include\pic16f887.h"
   498                           SSPMSK equ 093h ;# 
   499  0093                     # 2062 "C:\Program Files (x86)\Microchip\xc8\v2.00\pic\include\pic16f887.h"
   500                           MSK equ 093h ;# 
   501  0093                     # 2179 "C:\Program Files (x86)\Microchip\xc8\v2.00\pic\include\pic16f887.h"
   502                           SSPSTAT equ 094h ;# 
   503  0094                     # 2348 "C:\Program Files (x86)\Microchip\xc8\v2.00\pic\include\pic16f887.h"
   504                           WPUB equ 095h ;# 
   505  0095                     # 2418 "C:\Program Files (x86)\Microchip\xc8\v2.00\pic\include\pic16f887.h"
   506                           IOCB equ 096h ;# 
   507  0096                     # 2488 "C:\Program Files (x86)\Microchip\xc8\v2.00\pic\include\pic16f887.h"
   508                           VRCON equ 097h ;# 
   509  0097                     # 2558 "C:\Program Files (x86)\Microchip\xc8\v2.00\pic\include\pic16f887.h"
   510                           TXSTA equ 098h ;# 
   511  0098                     # 2644 "C:\Program Files (x86)\Microchip\xc8\v2.00\pic\include\pic16f887.h"
   512                           SPBRG equ 099h ;# 
   513  0099                     # 2706 "C:\Program Files (x86)\Microchip\xc8\v2.00\pic\include\pic16f887.h"
   514                           SPBRGH equ 09Ah ;# 
   515  009A                     # 2776 "C:\Program Files (x86)\Microchip\xc8\v2.00\pic\include\pic16f887.h"
   516                           PWM1CON equ 09Bh ;# 
   517  009B                     # 2846 "C:\Program Files (x86)\Microchip\xc8\v2.00\pic\include\pic16f887.h"
   518                           ECCPAS equ 09Ch ;# 
   519  009C                     # 2928 "C:\Program Files (x86)\Microchip\xc8\v2.00\pic\include\pic16f887.h"
   520                           PSTRCON equ 09Dh ;# 
   521  009D                     # 2972 "C:\Program Files (x86)\Microchip\xc8\v2.00\pic\include\pic16f887.h"
   522                           ADRESL equ 09Eh ;# 
   523  009E                     # 2979 "C:\Program Files (x86)\Microchip\xc8\v2.00\pic\include\pic16f887.h"
   524                           ADCON1 equ 09Fh ;# 
   525  009F                     # 3013 "C:\Program Files (x86)\Microchip\xc8\v2.00\pic\include\pic16f887.h"
   526                           WDTCON equ 0105h ;# 
   527  0105                     # 3066 "C:\Program Files (x86)\Microchip\xc8\v2.00\pic\include\pic16f887.h"
   528                           CM1CON0 equ 0107h ;# 
   529  0107                     # 3131 "C:\Program Files (x86)\Microchip\xc8\v2.00\pic\include\pic16f887.h"
   530                           CM2CON0 equ 0108h ;# 
   531  0108                     # 3196 "C:\Program Files (x86)\Microchip\xc8\v2.00\pic\include\pic16f887.h"
   532                           CM2CON1 equ 0109h ;# 
   533  0109                     # 3247 "C:\Program Files (x86)\Microchip\xc8\v2.00\pic\include\pic16f887.h"
   534                           EEDATA equ 010Ch ;# 
   535  010C                     # 3252 "C:\Program Files (x86)\Microchip\xc8\v2.00\pic\include\pic16f887.h"
   536                           EEDAT equ 010Ch ;# 
   537  010C                     # 3259 "C:\Program Files (x86)\Microchip\xc8\v2.00\pic\include\pic16f887.h"
   538                           EEADR equ 010Dh ;# 
   539  010D                     # 3266 "C:\Program Files (x86)\Microchip\xc8\v2.00\pic\include\pic16f887.h"
   540                           EEDATH equ 010Eh ;# 
   541  010E                     # 3273 "C:\Program Files (x86)\Microchip\xc8\v2.00\pic\include\pic16f887.h"
   542                           EEADRH equ 010Fh ;# 
   543  010F                     # 3280 "C:\Program Files (x86)\Microchip\xc8\v2.00\pic\include\pic16f887.h"
   544                           SRCON equ 0185h ;# 
   545  0185                     # 3337 "C:\Program Files (x86)\Microchip\xc8\v2.00\pic\include\pic16f887.h"
   546                           BAUDCTL equ 0187h ;# 
   547  0187                     # 3389 "C:\Program Files (x86)\Microchip\xc8\v2.00\pic\include\pic16f887.h"
   548                           ANSEL equ 0188h ;# 
   549  0188                     # 3451 "C:\Program Files (x86)\Microchip\xc8\v2.00\pic\include\pic16f887.h"
   550                           ANSELH equ 0189h ;# 
   551  0189                     # 3501 "C:\Program Files (x86)\Microchip\xc8\v2.00\pic\include\pic16f887.h"
   552                           EECON1 equ 018Ch ;# 
   553  018C                     # 3546 "C:\Program Files (x86)\Microchip\xc8\v2.00\pic\include\pic16f887.h"
   554                           EECON2 equ 018Dh ;# 
   555  018D                     # 54 "C:\Program Files (x86)\Microchip\xc8\v2.00\pic\include\pic16f887.h"
   556                           INDF equ 00h ;# 
   557  0000                     # 61 "C:\Program Files (x86)\Microchip\xc8\v2.00\pic\include\pic16f887.h"
   558                           TMR0 equ 01h ;# 
   559  0001                     # 68 "C:\Program Files (x86)\Microchip\xc8\v2.00\pic\include\pic16f887.h"
   560                           PCL equ 02h ;# 
   561  0002                     # 75 "C:\Program Files (x86)\Microchip\xc8\v2.00\pic\include\pic16f887.h"
   562                           STATUS equ 03h ;# 
   563  0003                     # 161 "C:\Program Files (x86)\Microchip\xc8\v2.00\pic\include\pic16f887.h"
   564                           FSR equ 04h ;# 
   565  0004                     # 168 "C:\Program Files (x86)\Microchip\xc8\v2.00\pic\include\pic16f887.h"
   566                           PORTA equ 05h ;# 
   567  0005                     # 230 "C:\Program Files (x86)\Microchip\xc8\v2.00\pic\include\pic16f887.h"
   568                           PORTB equ 06h ;# 
   569  0006                     # 292 "C:\Program Files (x86)\Microchip\xc8\v2.00\pic\include\pic16f887.h"
   570                           PORTC equ 07h ;# 
   571  0007                     # 354 "C:\Program Files (x86)\Microchip\xc8\v2.00\pic\include\pic16f887.h"
   572                           PORTD equ 08h ;# 
   573  0008                     # 416 "C:\Program Files (x86)\Microchip\xc8\v2.00\pic\include\pic16f887.h"
   574                           PORTE equ 09h ;# 
   575  0009                     # 454 "C:\Program Files (x86)\Microchip\xc8\v2.00\pic\include\pic16f887.h"
   576                           PCLATH equ 0Ah ;# 
   577  000A                     # 461 "C:\Program Files (x86)\Microchip\xc8\v2.00\pic\include\pic16f887.h"
   578                           INTCON equ 0Bh ;# 
   579  000B                     # 539 "C:\Program Files (x86)\Microchip\xc8\v2.00\pic\include\pic16f887.h"
   580                           PIR1 equ 0Ch ;# 
   581  000C                     # 595 "C:\Program Files (x86)\Microchip\xc8\v2.00\pic\include\pic16f887.h"
   582                           PIR2 equ 0Dh ;# 
   583  000D                     # 652 "C:\Program Files (x86)\Microchip\xc8\v2.00\pic\include\pic16f887.h"
   584                           TMR1 equ 0Eh ;# 
   585  000E                     # 659 "C:\Program Files (x86)\Microchip\xc8\v2.00\pic\include\pic16f887.h"
   586                           TMR1L equ 0Eh ;# 
   587  000E                     # 666 "C:\Program Files (x86)\Microchip\xc8\v2.00\pic\include\pic16f887.h"
   588                           TMR1H equ 0Fh ;# 
   589  000F                     # 673 "C:\Program Files (x86)\Microchip\xc8\v2.00\pic\include\pic16f887.h"
   590                           T1CON equ 010h ;# 
   591  0010                     # 767 "C:\Program Files (x86)\Microchip\xc8\v2.00\pic\include\pic16f887.h"
   592                           TMR2 equ 011h ;# 
   593  0011                     # 774 "C:\Program Files (x86)\Microchip\xc8\v2.00\pic\include\pic16f887.h"
   594                           T2CON equ 012h ;# 
   595  0012                     # 845 "C:\Program Files (x86)\Microchip\xc8\v2.00\pic\include\pic16f887.h"
   596                           SSPBUF equ 013h ;# 
   597  0013                     # 852 "C:\Program Files (x86)\Microchip\xc8\v2.00\pic\include\pic16f887.h"
   598                           SSPCON equ 014h ;# 
   599  0014                     # 922 "C:\Program Files (x86)\Microchip\xc8\v2.00\pic\include\pic16f887.h"
   600                           CCPR1 equ 015h ;# 
   601  0015                     # 929 "C:\Program Files (x86)\Microchip\xc8\v2.00\pic\include\pic16f887.h"
   602                           CCPR1L equ 015h ;# 
   603  0015                     # 936 "C:\Program Files (x86)\Microchip\xc8\v2.00\pic\include\pic16f887.h"
   604                           CCPR1H equ 016h ;# 
   605  0016                     # 943 "C:\Program Files (x86)\Microchip\xc8\v2.00\pic\include\pic16f887.h"
   606                           CCP1CON equ 017h ;# 
   607  0017                     # 1040 "C:\Program Files (x86)\Microchip\xc8\v2.00\pic\include\pic16f887.h"
   608                           RCSTA equ 018h ;# 
   609  0018                     # 1135 "C:\Program Files (x86)\Microchip\xc8\v2.00\pic\include\pic16f887.h"
   610                           TXREG equ 019h ;# 
   611  0019                     # 1142 "C:\Program Files (x86)\Microchip\xc8\v2.00\pic\include\pic16f887.h"
   612                           RCREG equ 01Ah ;# 
   613  001A                     # 1149 "C:\Program Files (x86)\Microchip\xc8\v2.00\pic\include\pic16f887.h"
   614                           CCPR2 equ 01Bh ;# 
   615  001B                     # 1156 "C:\Program Files (x86)\Microchip\xc8\v2.00\pic\include\pic16f887.h"
   616                           CCPR2L equ 01Bh ;# 
   617  001B                     # 1163 "C:\Program Files (x86)\Microchip\xc8\v2.00\pic\include\pic16f887.h"
   618                           CCPR2H equ 01Ch ;# 
   619  001C                     # 1170 "C:\Program Files (x86)\Microchip\xc8\v2.00\pic\include\pic16f887.h"
   620                           CCP2CON equ 01Dh ;# 
   621  001D                     # 1240 "C:\Program Files (x86)\Microchip\xc8\v2.00\pic\include\pic16f887.h"
   622                           ADRESH equ 01Eh ;# 
   623  001E                     # 1247 "C:\Program Files (x86)\Microchip\xc8\v2.00\pic\include\pic16f887.h"
   624                           ADCON0 equ 01Fh ;# 
   625  001F                     # 1348 "C:\Program Files (x86)\Microchip\xc8\v2.00\pic\include\pic16f887.h"
   626                           OPTION_REG equ 081h ;# 
   627  0081                     # 1418 "C:\Program Files (x86)\Microchip\xc8\v2.00\pic\include\pic16f887.h"
   628                           TRISA equ 085h ;# 
   629  0085                     # 1480 "C:\Program Files (x86)\Microchip\xc8\v2.00\pic\include\pic16f887.h"
   630                           TRISB equ 086h ;# 
   631  0086                     # 1542 "C:\Program Files (x86)\Microchip\xc8\v2.00\pic\include\pic16f887.h"
   632                           TRISC equ 087h ;# 
   633  0087                     # 1604 "C:\Program Files (x86)\Microchip\xc8\v2.00\pic\include\pic16f887.h"
   634                           TRISD equ 088h ;# 
   635  0088                     # 1666 "C:\Program Files (x86)\Microchip\xc8\v2.00\pic\include\pic16f887.h"
   636                           TRISE equ 089h ;# 
   637  0089                     # 1704 "C:\Program Files (x86)\Microchip\xc8\v2.00\pic\include\pic16f887.h"
   638                           PIE1 equ 08Ch ;# 
   639  008C                     # 1760 "C:\Program Files (x86)\Microchip\xc8\v2.00\pic\include\pic16f887.h"
   640                           PIE2 equ 08Dh ;# 
   641  008D                     # 1817 "C:\Program Files (x86)\Microchip\xc8\v2.00\pic\include\pic16f887.h"
   642                           PCON equ 08Eh ;# 
   643  008E                     # 1864 "C:\Program Files (x86)\Microchip\xc8\v2.00\pic\include\pic16f887.h"
   644                           OSCCON equ 08Fh ;# 
   645  008F                     # 1929 "C:\Program Files (x86)\Microchip\xc8\v2.00\pic\include\pic16f887.h"
   646                           OSCTUNE equ 090h ;# 
   647  0090                     # 1981 "C:\Program Files (x86)\Microchip\xc8\v2.00\pic\include\pic16f887.h"
   648                           SSPCON2 equ 091h ;# 
   649  0091                     # 2043 "C:\Program Files (x86)\Microchip\xc8\v2.00\pic\include\pic16f887.h"
   650                           PR2 equ 092h ;# 
   651  0092                     # 2050 "C:\Program Files (x86)\Microchip\xc8\v2.00\pic\include\pic16f887.h"
   652                           SSPADD equ 093h ;# 
   653  0093                     # 2057 "C:\Program Files (x86)\Microchip\xc8\v2.00\pic\include\pic16f887.h"
   654                           SSPMSK equ 093h ;# 
   655  0093                     # 2062 "C:\Program Files (x86)\Microchip\xc8\v2.00\pic\include\pic16f887.h"
   656                           MSK equ 093h ;# 
   657  0093                     # 2179 "C:\Program Files (x86)\Microchip\xc8\v2.00\pic\include\pic16f887.h"
   658                           SSPSTAT equ 094h ;# 
   659  0094                     # 2348 "C:\Program Files (x86)\Microchip\xc8\v2.00\pic\include\pic16f887.h"
   660                           WPUB equ 095h ;# 
   661  0095                     # 2418 "C:\Program Files (x86)\Microchip\xc8\v2.00\pic\include\pic16f887.h"
   662                           IOCB equ 096h ;# 
   663  0096                     # 2488 "C:\Program Files (x86)\Microchip\xc8\v2.00\pic\include\pic16f887.h"
   664                           VRCON equ 097h ;# 
   665  0097                     # 2558 "C:\Program Files (x86)\Microchip\xc8\v2.00\pic\include\pic16f887.h"
   666                           TXSTA equ 098h ;# 
   667  0098                     # 2644 "C:\Program Files (x86)\Microchip\xc8\v2.00\pic\include\pic16f887.h"
   668                           SPBRG equ 099h ;# 
   669  0099                     # 2706 "C:\Program Files (x86)\Microchip\xc8\v2.00\pic\include\pic16f887.h"
   670                           SPBRGH equ 09Ah ;# 
   671  009A                     # 2776 "C:\Program Files (x86)\Microchip\xc8\v2.00\pic\include\pic16f887.h"
   672                           PWM1CON equ 09Bh ;# 
   673  009B                     # 2846 "C:\Program Files (x86)\Microchip\xc8\v2.00\pic\include\pic16f887.h"
   674                           ECCPAS equ 09Ch ;# 
   675  009C                     # 2928 "C:\Program Files (x86)\Microchip\xc8\v2.00\pic\include\pic16f887.h"
   676                           PSTRCON equ 09Dh ;# 
   677  009D                     # 2972 "C:\Program Files (x86)\Microchip\xc8\v2.00\pic\include\pic16f887.h"
   678                           ADRESL equ 09Eh ;# 
   679  009E                     # 2979 "C:\Program Files (x86)\Microchip\xc8\v2.00\pic\include\pic16f887.h"
   680                           ADCON1 equ 09Fh ;# 
   681  009F                     # 3013 "C:\Program Files (x86)\Microchip\xc8\v2.00\pic\include\pic16f887.h"
   682                           WDTCON equ 0105h ;# 
   683  0105                     # 3066 "C:\Program Files (x86)\Microchip\xc8\v2.00\pic\include\pic16f887.h"
   684                           CM1CON0 equ 0107h ;# 
   685  0107                     # 3131 "C:\Program Files (x86)\Microchip\xc8\v2.00\pic\include\pic16f887.h"
   686                           CM2CON0 equ 0108h ;# 
   687  0108                     # 3196 "C:\Program Files (x86)\Microchip\xc8\v2.00\pic\include\pic16f887.h"
   688                           CM2CON1 equ 0109h ;# 
   689  0109                     # 3247 "C:\Program Files (x86)\Microchip\xc8\v2.00\pic\include\pic16f887.h"
   690                           EEDATA equ 010Ch ;# 
   691  010C                     # 3252 "C:\Program Files (x86)\Microchip\xc8\v2.00\pic\include\pic16f887.h"
   692                           EEDAT equ 010Ch ;# 
   693  010C                     # 3259 "C:\Program Files (x86)\Microchip\xc8\v2.00\pic\include\pic16f887.h"
   694                           EEADR equ 010Dh ;# 
   695  010D                     # 3266 "C:\Program Files (x86)\Microchip\xc8\v2.00\pic\include\pic16f887.h"
   696                           EEDATH equ 010Eh ;# 
   697  010E                     # 3273 "C:\Program Files (x86)\Microchip\xc8\v2.00\pic\include\pic16f887.h"
   698                           EEADRH equ 010Fh ;# 
   699  010F                     # 3280 "C:\Program Files (x86)\Microchip\xc8\v2.00\pic\include\pic16f887.h"
   700                           SRCON equ 0185h ;# 
   701  0185                     # 3337 "C:\Program Files (x86)\Microchip\xc8\v2.00\pic\include\pic16f887.h"
   702                           BAUDCTL equ 0187h ;# 
   703  0187                     # 3389 "C:\Program Files (x86)\Microchip\xc8\v2.00\pic\include\pic16f887.h"
   704                           ANSEL equ 0188h ;# 
   705  0188                     # 3451 "C:\Program Files (x86)\Microchip\xc8\v2.00\pic\include\pic16f887.h"
   706                           ANSELH equ 0189h ;# 
   707  0189                     # 3501 "C:\Program Files (x86)\Microchip\xc8\v2.00\pic\include\pic16f887.h"
   708                           EECON1 equ 018Ch ;# 
   709  018C                     # 3546 "C:\Program Files (x86)\Microchip\xc8\v2.00\pic\include\pic16f887.h"
   710                           EECON2 equ 018Dh ;# 
   711  018D                     # 54 "C:\Program Files (x86)\Microchip\xc8\v2.00\pic\include\pic16f887.h"
   712                           INDF equ 00h ;# 
   713  0000                     # 61 "C:\Program Files (x86)\Microchip\xc8\v2.00\pic\include\pic16f887.h"
   714                           TMR0 equ 01h ;# 
   715  0001                     # 68 "C:\Program Files (x86)\Microchip\xc8\v2.00\pic\include\pic16f887.h"
   716                           PCL equ 02h ;# 
   717  0002                     # 75 "C:\Program Files (x86)\Microchip\xc8\v2.00\pic\include\pic16f887.h"
   718                           STATUS equ 03h ;# 
   719  0003                     # 161 "C:\Program Files (x86)\Microchip\xc8\v2.00\pic\include\pic16f887.h"
   720                           FSR equ 04h ;# 
   721  0004                     # 168 "C:\Program Files (x86)\Microchip\xc8\v2.00\pic\include\pic16f887.h"
   722                           PORTA equ 05h ;# 
   723  0005                     # 230 "C:\Program Files (x86)\Microchip\xc8\v2.00\pic\include\pic16f887.h"
   724                           PORTB equ 06h ;# 
   725  0006                     # 292 "C:\Program Files (x86)\Microchip\xc8\v2.00\pic\include\pic16f887.h"
   726                           PORTC equ 07h ;# 
   727  0007                     # 354 "C:\Program Files (x86)\Microchip\xc8\v2.00\pic\include\pic16f887.h"
   728                           PORTD equ 08h ;# 
   729  0008                     # 416 "C:\Program Files (x86)\Microchip\xc8\v2.00\pic\include\pic16f887.h"
   730                           PORTE equ 09h ;# 
   731  0009                     # 454 "C:\Program Files (x86)\Microchip\xc8\v2.00\pic\include\pic16f887.h"
   732                           PCLATH equ 0Ah ;# 
   733  000A                     # 461 "C:\Program Files (x86)\Microchip\xc8\v2.00\pic\include\pic16f887.h"
   734                           INTCON equ 0Bh ;# 
   735  000B                     # 539 "C:\Program Files (x86)\Microchip\xc8\v2.00\pic\include\pic16f887.h"
   736                           PIR1 equ 0Ch ;# 
   737  000C                     # 595 "C:\Program Files (x86)\Microchip\xc8\v2.00\pic\include\pic16f887.h"
   738                           PIR2 equ 0Dh ;# 
   739  000D                     # 652 "C:\Program Files (x86)\Microchip\xc8\v2.00\pic\include\pic16f887.h"
   740                           TMR1 equ 0Eh ;# 
   741  000E                     # 659 "C:\Program Files (x86)\Microchip\xc8\v2.00\pic\include\pic16f887.h"
   742                           TMR1L equ 0Eh ;# 
   743  000E                     # 666 "C:\Program Files (x86)\Microchip\xc8\v2.00\pic\include\pic16f887.h"
   744                           TMR1H equ 0Fh ;# 
   745  000F                     # 673 "C:\Program Files (x86)\Microchip\xc8\v2.00\pic\include\pic16f887.h"
   746                           T1CON equ 010h ;# 
   747  0010                     # 767 "C:\Program Files (x86)\Microchip\xc8\v2.00\pic\include\pic16f887.h"
   748                           TMR2 equ 011h ;# 
   749  0011                     # 774 "C:\Program Files (x86)\Microchip\xc8\v2.00\pic\include\pic16f887.h"
   750                           T2CON equ 012h ;# 
   751  0012                     # 845 "C:\Program Files (x86)\Microchip\xc8\v2.00\pic\include\pic16f887.h"
   752                           SSPBUF equ 013h ;# 
   753  0013                     # 852 "C:\Program Files (x86)\Microchip\xc8\v2.00\pic\include\pic16f887.h"
   754                           SSPCON equ 014h ;# 
   755  0014                     # 922 "C:\Program Files (x86)\Microchip\xc8\v2.00\pic\include\pic16f887.h"
   756                           CCPR1 equ 015h ;# 
   757  0015                     # 929 "C:\Program Files (x86)\Microchip\xc8\v2.00\pic\include\pic16f887.h"
   758                           CCPR1L equ 015h ;# 
   759  0015                     # 936 "C:\Program Files (x86)\Microchip\xc8\v2.00\pic\include\pic16f887.h"
   760                           CCPR1H equ 016h ;# 
   761  0016                     # 943 "C:\Program Files (x86)\Microchip\xc8\v2.00\pic\include\pic16f887.h"
   762                           CCP1CON equ 017h ;# 
   763  0017                     # 1040 "C:\Program Files (x86)\Microchip\xc8\v2.00\pic\include\pic16f887.h"
   764                           RCSTA equ 018h ;# 
   765  0018                     # 1135 "C:\Program Files (x86)\Microchip\xc8\v2.00\pic\include\pic16f887.h"
   766                           TXREG equ 019h ;# 
   767  0019                     # 1142 "C:\Program Files (x86)\Microchip\xc8\v2.00\pic\include\pic16f887.h"
   768                           RCREG equ 01Ah ;# 
   769  001A                     # 1149 "C:\Program Files (x86)\Microchip\xc8\v2.00\pic\include\pic16f887.h"
   770                           CCPR2 equ 01Bh ;# 
   771  001B                     # 1156 "C:\Program Files (x86)\Microchip\xc8\v2.00\pic\include\pic16f887.h"
   772                           CCPR2L equ 01Bh ;# 
   773  001B                     # 1163 "C:\Program Files (x86)\Microchip\xc8\v2.00\pic\include\pic16f887.h"
   774                           CCPR2H equ 01Ch ;# 
   775  001C                     # 1170 "C:\Program Files (x86)\Microchip\xc8\v2.00\pic\include\pic16f887.h"
   776                           CCP2CON equ 01Dh ;# 
   777  001D                     # 1240 "C:\Program Files (x86)\Microchip\xc8\v2.00\pic\include\pic16f887.h"
   778                           ADRESH equ 01Eh ;# 
   779  001E                     # 1247 "C:\Program Files (x86)\Microchip\xc8\v2.00\pic\include\pic16f887.h"
   780                           ADCON0 equ 01Fh ;# 
   781  001F                     # 1348 "C:\Program Files (x86)\Microchip\xc8\v2.00\pic\include\pic16f887.h"
   782                           OPTION_REG equ 081h ;# 
   783  0081                     # 1418 "C:\Program Files (x86)\Microchip\xc8\v2.00\pic\include\pic16f887.h"
   784                           TRISA equ 085h ;# 
   785  0085                     # 1480 "C:\Program Files (x86)\Microchip\xc8\v2.00\pic\include\pic16f887.h"
   786                           TRISB equ 086h ;# 
   787  0086                     # 1542 "C:\Program Files (x86)\Microchip\xc8\v2.00\pic\include\pic16f887.h"
   788                           TRISC equ 087h ;# 
   789  0087                     # 1604 "C:\Program Files (x86)\Microchip\xc8\v2.00\pic\include\pic16f887.h"
   790                           TRISD equ 088h ;# 
   791  0088                     # 1666 "C:\Program Files (x86)\Microchip\xc8\v2.00\pic\include\pic16f887.h"
   792                           TRISE equ 089h ;# 
   793  0089                     # 1704 "C:\Program Files (x86)\Microchip\xc8\v2.00\pic\include\pic16f887.h"
   794                           PIE1 equ 08Ch ;# 
   795  008C                     # 1760 "C:\Program Files (x86)\Microchip\xc8\v2.00\pic\include\pic16f887.h"
   796                           PIE2 equ 08Dh ;# 
   797  008D                     # 1817 "C:\Program Files (x86)\Microchip\xc8\v2.00\pic\include\pic16f887.h"
   798                           PCON equ 08Eh ;# 
   799  008E                     # 1864 "C:\Program Files (x86)\Microchip\xc8\v2.00\pic\include\pic16f887.h"
   800                           OSCCON equ 08Fh ;# 
   801  008F                     # 1929 "C:\Program Files (x86)\Microchip\xc8\v2.00\pic\include\pic16f887.h"
   802                           OSCTUNE equ 090h ;# 
   803  0090                     # 1981 "C:\Program Files (x86)\Microchip\xc8\v2.00\pic\include\pic16f887.h"
   804                           SSPCON2 equ 091h ;# 
   805  0091                     # 2043 "C:\Program Files (x86)\Microchip\xc8\v2.00\pic\include\pic16f887.h"
   806                           PR2 equ 092h ;# 
   807  0092                     # 2050 "C:\Program Files (x86)\Microchip\xc8\v2.00\pic\include\pic16f887.h"
   808                           SSPADD equ 093h ;# 
   809  0093                     # 2057 "C:\Program Files (x86)\Microchip\xc8\v2.00\pic\include\pic16f887.h"
   810                           SSPMSK equ 093h ;# 
   811  0093                     # 2062 "C:\Program Files (x86)\Microchip\xc8\v2.00\pic\include\pic16f887.h"
   812                           MSK equ 093h ;# 
   813  0093                     # 2179 "C:\Program Files (x86)\Microchip\xc8\v2.00\pic\include\pic16f887.h"
   814                           SSPSTAT equ 094h ;# 
   815  0094                     # 2348 "C:\Program Files (x86)\Microchip\xc8\v2.00\pic\include\pic16f887.h"
   816                           WPUB equ 095h ;# 
   817  0095                     # 2418 "C:\Program Files (x86)\Microchip\xc8\v2.00\pic\include\pic16f887.h"
   818                           IOCB equ 096h ;# 
   819  0096                     # 2488 "C:\Program Files (x86)\Microchip\xc8\v2.00\pic\include\pic16f887.h"
   820                           VRCON equ 097h ;# 
   821  0097                     # 2558 "C:\Program Files (x86)\Microchip\xc8\v2.00\pic\include\pic16f887.h"
   822                           TXSTA equ 098h ;# 
   823  0098                     # 2644 "C:\Program Files (x86)\Microchip\xc8\v2.00\pic\include\pic16f887.h"
   824                           SPBRG equ 099h ;# 
   825  0099                     # 2706 "C:\Program Files (x86)\Microchip\xc8\v2.00\pic\include\pic16f887.h"
   826                           SPBRGH equ 09Ah ;# 
   827  009A                     # 2776 "C:\Program Files (x86)\Microchip\xc8\v2.00\pic\include\pic16f887.h"
   828                           PWM1CON equ 09Bh ;# 
   829  009B                     # 2846 "C:\Program Files (x86)\Microchip\xc8\v2.00\pic\include\pic16f887.h"
   830                           ECCPAS equ 09Ch ;# 
   831  009C                     # 2928 "C:\Program Files (x86)\Microchip\xc8\v2.00\pic\include\pic16f887.h"
   832                           PSTRCON equ 09Dh ;# 
   833  009D                     # 2972 "C:\Program Files (x86)\Microchip\xc8\v2.00\pic\include\pic16f887.h"
   834                           ADRESL equ 09Eh ;# 
   835  009E                     # 2979 "C:\Program Files (x86)\Microchip\xc8\v2.00\pic\include\pic16f887.h"
   836                           ADCON1 equ 09Fh ;# 
   837  009F                     # 3013 "C:\Program Files (x86)\Microchip\xc8\v2.00\pic\include\pic16f887.h"
   838                           WDTCON equ 0105h ;# 
   839  0105                     # 3066 "C:\Program Files (x86)\Microchip\xc8\v2.00\pic\include\pic16f887.h"
   840                           CM1CON0 equ 0107h ;# 
   841  0107                     # 3131 "C:\Program Files (x86)\Microchip\xc8\v2.00\pic\include\pic16f887.h"
   842                           CM2CON0 equ 0108h ;# 
   843  0108                     # 3196 "C:\Program Files (x86)\Microchip\xc8\v2.00\pic\include\pic16f887.h"
   844                           CM2CON1 equ 0109h ;# 
   845  0109                     # 3247 "C:\Program Files (x86)\Microchip\xc8\v2.00\pic\include\pic16f887.h"
   846                           EEDATA equ 010Ch ;# 
   847  010C                     # 3252 "C:\Program Files (x86)\Microchip\xc8\v2.00\pic\include\pic16f887.h"
   848                           EEDAT equ 010Ch ;# 
   849  010C                     # 3259 "C:\Program Files (x86)\Microchip\xc8\v2.00\pic\include\pic16f887.h"
   850                           EEADR equ 010Dh ;# 
   851  010D                     # 3266 "C:\Program Files (x86)\Microchip\xc8\v2.00\pic\include\pic16f887.h"
   852                           EEDATH equ 010Eh ;# 
   853  010E                     # 3273 "C:\Program Files (x86)\Microchip\xc8\v2.00\pic\include\pic16f887.h"
   854                           EEADRH equ 010Fh ;# 
   855  010F                     # 3280 "C:\Program Files (x86)\Microchip\xc8\v2.00\pic\include\pic16f887.h"
   856                           SRCON equ 0185h ;# 
   857  0185                     # 3337 "C:\Program Files (x86)\Microchip\xc8\v2.00\pic\include\pic16f887.h"
   858                           BAUDCTL equ 0187h ;# 
   859  0187                     # 3389 "C:\Program Files (x86)\Microchip\xc8\v2.00\pic\include\pic16f887.h"
   860                           ANSEL equ 0188h ;# 
   861  0188                     # 3451 "C:\Program Files (x86)\Microchip\xc8\v2.00\pic\include\pic16f887.h"
   862                           ANSELH equ 0189h ;# 
   863  0189                     # 3501 "C:\Program Files (x86)\Microchip\xc8\v2.00\pic\include\pic16f887.h"
   864                           EECON1 equ 018Ch ;# 
   865  018C                     # 3546 "C:\Program Files (x86)\Microchip\xc8\v2.00\pic\include\pic16f887.h"
   866                           EECON2 equ 018Dh ;# 
   867  018D                     	FNCALL	_main,_delay
   868                           	FNCALL	_main,_dispLCD
   869                           	FNCALL	_main,_dispLCD_clr
   870                           	FNCALL	_main,_dispLCD_init
   871                           	FNCALL	_main,_dispLCD_num
   872                           	FNCALL	_main,_timer2_init
   873                           	FNCALL	_dispLCD_num,___awdiv
   874                           	FNCALL	_dispLCD_num,___awmod
   875                           	FNCALL	_dispLCD_num,_dispLCD_dataReg
   876                           	FNCALL	_dispLCD_num,_dispLCD_lincol
   877                           	FNCALL	_dispLCD_init,_dispLCD_instReg
   878                           	FNCALL	_dispLCD_clr,_dispLCD_instReg
   879                           	FNCALL	_dispLCD,_dispLCD_dataReg
   880                           	FNCALL	_dispLCD,_dispLCD_lincol
   881                           	FNCALL	_dispLCD_lincol,_dispLCD_instReg
   882                           	FNROOT	_main
   883                           	FNCALL	intlevel1,_ossada
   884                           	global	intlevel1
   885                           	FNROOT	intlevel1
   886                           	global	_t2seg
   887                           	global	_contador
   888                           	global	_TMR2
   889                           _TMR2	set	0x11
   890  0011                     	global	_T2CONbits
   891                           _T2CONbits	set	0x12
   892  0012                     	global	_INTCONbits
   893                           _INTCONbits	set	0xB
   894  000B                     	global	_LCDbits
   895                           psect	text0,local,class=CODE,delta=2,merge=1
   896                           global __ptext0
   897                           __ptext0:
   898  0000                     _LCDbits	set	8
   899  0008                     	global	_TRISDbits
   900                           _TRISDbits	set	0x88
   901  0088                     psect	strings,class=STRING,delta=2,noexec
   902                           global __pstrings
   903                           __pstrings:
   904  0300                     stringtab:
   905  0300                     	global    __stringtab
   906                           __stringtab:
   907  0300                     ;	String table - string pointers are 1 byte each
   908                           stringcode:stringdir:
   909  0300                     movlw high(stringdir)
      + 0300                     stringdir:	
   910  0300  3003               movwf pclath
   911  0301  008A               movf fsr,w
   912  0302  0804               incf fsr
   913  0303  0A84               	addwf pc
   914  0304  0782               	global __stringbase
   915                           __stringbase:
   916  0305                     	retlw	0
   917  0305  3400               psect	strings
   918                           	global    __end_of__stringtab
   919                           __end_of__stringtab:
   920  0306                     	
   921                           STR_1:	
   922  0306                     	retlw	67	;'C'
   923  0306  3443               	retlw	111	;'o'
   924  0307  346F               	retlw	110	;'n'
   925  0308  346E               	retlw	116	;'t'
   926  0309  3474               	retlw	97	;'a'
   927  030A  3461               	retlw	100	;'d'
   928  030B  3464               	retlw	111	;'o'
   929  030C  346F               	retlw	114	;'r'
   930  030D  3472               	retlw	58	;':'
   931  030E  343A               	retlw	32	;' '
   932  030F  3420               	retlw	32	;' '
   933  0310  3420               	retlw	32	;' '
   934  0311  3420               	retlw	32	;' '
   935  0312  3420               	retlw	32	;' '
   936  0313  3420               	retlw	32	;' '
   937  0314  3420               	retlw	32	;' '
   938  0315  3420               	retlw	32	;' '
   939  0316  3420               	retlw	32	;' '
   940  0317  3420               	retlw	32	;' '
   941  0318  3420               	retlw	0
   942  0319  3400               psect	strings
   943                           	
   944                           STR_6:	
   945  031A                     	retlw	108	;'l'
   946  031A  346C               	retlw	58	;':'
   947  031B  343A               	retlw	32	;' '
   948  031C  3420               	retlw	108	;'l'
   949  031D  346C               	retlw	105	;'i'
   950  031E  3469               	retlw	110	;'n'
   951  031F  346E               	retlw	104	;'h'
   952  0320  3468               	retlw	97	;'a'
   953  0321  3461               	retlw	32	;' '
   954  0322  3420               	retlw	32	;' '
   955  0323  3420               	retlw	32	;' '
   956  0324  3420               	retlw	32	;' '
   957  0325  3420               	retlw	32	;' '
   958  0326  3420               	retlw	32	;' '
   959  0327  3420               	retlw	32	;' '
   960  0328  3420               	retlw	32	;' '
   961  0329  3420               	retlw	0
   962  032A  3400               psect	strings
   963                           	
   964                           STR_7:	
   965  032B                     	retlw	99	;'c'
   966  032B  3463               	retlw	58	;':'
   967  032C  343A               	retlw	32	;' '
   968  032D  3420               	retlw	99	;'c'
   969  032E  3463               	retlw	111	;'o'
   970  032F  346F               	retlw	108	;'l'
   971  0330  346C               	retlw	117	;'u'
   972  0331  3475               	retlw	110	;'n'
   973  0332  346E               	retlw	97	;'a'
   974  0333  3461               	retlw	32	;' '
   975  0334  3420               	retlw	32	;' '
   976  0335  3420               	retlw	32	;' '
   977  0336  3420               	retlw	32	;' '
   978  0337  3420               	retlw	32	;' '
   979  0338  3420               	retlw	32	;' '
   980  0339  3420               	retlw	32	;' '
   981  033A  3420               	retlw	0
   982  033B  3400               psect	strings
   983                           	
   984                           STR_2:	
   985  033C                     	retlw	32	;' '
   986  033C  3420               	retlw	32	;' '
   987  033D  3420               	retlw	32	;' '
   988  033E  3420               	retlw	32	;' '
   989  033F  3420               	retlw	72	;'H'
   990  0340  3448               	retlw	68	;'D'
   991  0341  3444               	retlw	52	;'4'
   992  0342  3434               	retlw	52	;'4'
   993  0343  3434               	retlw	55	;'7'
   994  0344  3437               	retlw	56	;'8'
   995  0345  3438               	retlw	48	;'0'
   996  0346  3430               	retlw	32	;' '
   997  0347  3420               	retlw	32	;' '
   998  0348  3420               	retlw	32	;' '
   999  0349  3420               	retlw	32	;' '
  1000  034A  3420               	retlw	32	;' '
  1001  034B  3420               	retlw	0
  1002  034C  3400               psect	strings
  1003                           	
  1004                           STR_8:	
  1005  034D                     	retlw	115	;'s'
  1006  034D  3473               	retlw	116	;'t'
  1007  034E  3474               	retlw	114	;'r'
  1008  034F  3472               	retlw	58	;':'
  1009  0350  343A               	retlw	32	;' '
  1010  0351  3420               	retlw	115	;'s'
  1011  0352  3473               	retlw	116	;'t'
  1012  0353  3474               	retlw	114	;'r'
  1013  0354  3472               	retlw	105	;'i'
  1014  0355  3469               	retlw	110	;'n'
  1015  0356  346E               	retlw	103	;'g'
  1016  0357  3467               	retlw	32	;' '
  1017  0358  3420               	retlw	32	;' '
  1018  0359  3420               	retlw	32	;' '
  1019  035A  3420               	retlw	32	;' '
  1020  035B  3420               	retlw	32	;' '
  1021  035C  3420               	retlw	0
  1022  035D  3400               psect	strings
  1023                           	
  1024                           STR_4:	
  1025  035E                     	retlw	32	;' '
  1026  035E  3420               	retlw	32	;' '
  1027  035F  3420               	retlw	105	;'i'
  1028  0360  3469               	retlw	110	;'n'
  1029  0361  346E               	retlw	105	;'i'
  1030  0362  3469               	retlw	99	;'c'
  1031  0363  3463               	retlw	105	;'i'
  1032  0364  3469               	retlw	97	;'a'
  1033  0365  3461               	retlw	108	;'l'
  1034  0366  346C               	retlw	105	;'i'
  1035  0367  3469               	retlw	122	;'z'
  1036  0368  347A               	retlw	97	;'a'
  1037  0369  3461               	retlw	32	;' '
  1038  036A  3420               	retlw	32	;' '
  1039  036B  3420               	retlw	32	;' '
  1040  036C  3420               	retlw	32	;' '
  1041  036D  3420               	retlw	0
  1042  036E  3400               psect	strings
  1043                           	
  1044                           STR_9:	
  1045  036F                     	retlw	32	;' '
  1046  036F  3420               	retlw	32	;' '
  1047  0370  3420               	retlw	68	;'D'
  1048  0371  3444               	retlw	105	;'i'
  1049  0372  3469               	retlw	115	;'s'
  1050  0373  3473               	retlw	112	;'p'
  1051  0374  3470               	retlw	108	;'l'
  1052  0375  346C               	retlw	97	;'a'
  1053  0376  3461               	retlw	121	;'y'
  1054  0377  3479               	retlw	32	;' '
  1055  0378  3420               	retlw	76	;'L'
  1056  0379  344C               	retlw	67	;'C'
  1057  037A  3443               	retlw	68	;'D'
  1058  037B  3444               	retlw	32	;' '
  1059  037C  3420               	retlw	32	;' '
  1060  037D  3420               	retlw	32	;' '
  1061  037E  3420               	retlw	0
  1062  037F  3400               psect	strings
  1063                           	
  1064                           STR_3:	
  1065  0380                     	retlw	32	;' '
  1066  0380  3420               	retlw	100	;'d'
  1067  0381  3464               	retlw	105	;'i'
  1068  0382  3469               	retlw	115	;'s'
  1069  0383  3473               	retlw	112	;'p'
  1070  0384  3470               	retlw	76	;'L'
  1071  0385  344C               	retlw	67	;'C'
  1072  0386  3443               	retlw	68	;'D'
  1073  0387  3444               	retlw	95	;'_'
  1074  0388  345F               	retlw	105	;'i'
  1075  0389  3469               	retlw	110	;'n'
  1076  038A  346E               	retlw	105	;'i'
  1077  038B  3469               	retlw	116	;'t'
  1078  038C  3474               	retlw	40	;'('
  1079  038D  3428               	retlw	41	;')'
  1080  038E  3429               	retlw	32	;' '
  1081  038F  3420               	retlw	0
  1082  0390  3400               psect	strings
  1083                           	
  1084                           STR_5:	
  1085  0391                     	retlw	100	;'d'
  1086  0391  3464               	retlw	105	;'i'
  1087  0392  3469               	retlw	115	;'s'
  1088  0393  3473               	retlw	112	;'p'
  1089  0394  3470               	retlw	76	;'L'
  1090  0395  344C               	retlw	67	;'C'
  1091  0396  3443               	retlw	68	;'D'
  1092  0397  3444               	retlw	40	;'('
  1093  0398  3428               	retlw	108	;'l'
  1094  0399  346C               	retlw	44	;','
  1095  039A  342C               	retlw	99	;'c'
  1096  039B  3463               	retlw	44	;','
  1097  039C  342C               	retlw	115	;'s'
  1098  039D  3473               	retlw	116	;'t'
  1099  039E  3474               	retlw	114	;'r'
  1100  039F  3472               	retlw	41	;')'
  1101  03A0  3429               	retlw	0
  1102  03A1  3400               psect	strings
  1103                           	
  1104                           STR_10:	
  1105  03A2                     	retlw	71	;'G'
  1106  03A2  3447               	retlw	85	;'U'
  1107  03A3  3455               	retlw	83	;'S'
  1108  03A4  3453               	retlw	84	;'T'
  1109  03A5  3454               	retlw	65	;'A'
  1110  03A6  3441               	retlw	86	;'V'
  1111  03A7  3456               	retlw	79	;'O'
  1112  03A8  344F               	retlw	58	;':'
  1113  03A9  343A               	retlw	32	;' '
  1114  03AA  3420               	retlw	32	;' '
  1115  03AB  3420               	retlw	32	;' '
  1116  03AC  3420               	retlw	32	;' '
  1117  03AD  3420               	retlw	32	;' '
  1118  03AE  3420               	retlw	32	;' '
  1119  03AF  3420               	retlw	0
  1120  03B0  3400               psect	strings
  1121                           ; #config settings
  1122                           global __CFG_FOSC$INTRC_NOCLKOUT
  1123                           __CFG_FOSC$INTRC_NOCLKOUT equ 0x0
  1124  0000                     global __CFG_WDTE$OFF
  1125                           __CFG_WDTE$OFF equ 0x0
  1126  0000                     global __CFG_PWRTE$OFF
  1127                           __CFG_PWRTE$OFF equ 0x0
  1128  0000                     global __CFG_MCLRE$OFF
  1129                           __CFG_MCLRE$OFF equ 0x0
  1130  0000                     global __CFG_CP$OFF
  1131                           __CFG_CP$OFF equ 0x0
  1132  0000                     global __CFG_CPD$OFF
  1133                           __CFG_CPD$OFF equ 0x0
  1134  0000                     global __CFG_BOREN$OFF
  1135                           __CFG_BOREN$OFF equ 0x0
  1136  0000                     global __CFG_IESO$OFF
  1137                           __CFG_IESO$OFF equ 0x0
  1138  0000                     global __CFG_FCMEN$OFF
  1139                           __CFG_FCMEN$OFF equ 0x0
  1140  0000                     global __CFG_LVP$OFF
  1141                           __CFG_LVP$OFF equ 0x0
  1142  0000                     global __CFG_BOR4V$BOR40V
  1143                           __CFG_BOR4V$BOR40V equ 0x0
  1144  0000                     global __CFG_WRT$OFF
  1145                           __CFG_WRT$OFF equ 0x0
  1146  0000                     	file	"C:\Users\20185147\AppData\Local\Temp\sbl0."
  1147                           	line	#
  1148                           psect cinit,class=CODE,delta=2
  1149                           global start_initialization
  1150                           start_initialization:
  1151  000F                     
  1152                           global __initialization
  1153                           __initialization:
  1154  000F                     psect	bssCOMMON,class=COMMON,space=1,noexec
  1155                           global __pbssCOMMON
  1156                           __pbssCOMMON:
  1157  007A                     _t2seg:
  1158  007A                            ds      2
  1159  007A                     
  1160                           psect	bssBANK0,class=BANK0,space=1,noexec
  1161                           global __pbssBANK0
  1162                           __pbssBANK0:
  1163  003A                     _contador:
  1164  003A                            ds      2
  1165  003A                     
  1166                           	file	"C:\Users\20185147\AppData\Local\Temp\sbl0."
  1167                           	line	#
  1168                           ; Clear objects allocated to COMMON
  1169                           psect cinit,class=CODE,delta=2,merge=1
  1170                           	clrf	((__pbssCOMMON)+0)&07Fh
  1171  000F  01FA               	clrf	((__pbssCOMMON)+1)&07Fh
  1172  0010  01FB               ; Clear objects allocated to BANK0
  1173                           psect cinit,class=CODE,delta=2,merge=1
  1174                           	bcf	status, 5	;RP0=0, select bank0
  1175  0011  1283               	bcf	status, 6	;RP1=0, select bank0
  1176  0012  1303               	clrf	((__pbssBANK0)+0)&07Fh
  1177  0013  01BA               	clrf	((__pbssBANK0)+1)&07Fh
  1178  0014  01BB               psect cinit,class=CODE,delta=2,merge=1
  1179                           global end_of_initialization,__end_of__initialization
  1180                           
  1181                           ;End of C runtime variable initialization code
  1182                           
  1183                           end_of_initialization:
  1184  0015                     __end_of__initialization:
  1185  0015                     clrf status
  1186  0015  0183               ljmp _main	;jump to C main() function
  1187  0016  120A  118A  2819   psect	cstackCOMMON,class=COMMON,space=1,noexec
  1188                           global __pcstackCOMMON
  1189                           __pcstackCOMMON:
  1190  0070                     ?_dispLCD_init:	; 1 bytes @ 0x0
  1191  0070                     ?_timer2_init:	; 1 bytes @ 0x0
  1192  0070                     ?_dispLCD_clr:	; 1 bytes @ 0x0
  1193  0070                     ?_main:	; 1 bytes @ 0x0
  1194  0070                     ?_dispLCD_instReg:	; 1 bytes @ 0x0
  1195  0070                     ?_dispLCD_dataReg:	; 1 bytes @ 0x0
  1196  0070                     ?_ossada:	; 1 bytes @ 0x0
  1197  0070                     ??_ossada:	; 1 bytes @ 0x0
  1198  0070                     	ds	2
  1199  0070                     ??_timer2_init:	; 1 bytes @ 0x2
  1200  0072                     ?_delay:	; 1 bytes @ 0x2
  1201  0072                     ??_dispLCD_instReg:	; 1 bytes @ 0x2
  1202  0072                     ??_dispLCD_dataReg:	; 1 bytes @ 0x2
  1203  0072                     	global	?___awdiv
  1204                           ?___awdiv:	; 2 bytes @ 0x2
  1205  0072                     	global	?___awmod
  1206                           ?___awmod:	; 2 bytes @ 0x2
  1207  0072                     	global	delay@t
  1208                           delay@t:	; 2 bytes @ 0x2
  1209  0072                     	global	___awdiv@divisor
  1210                           ___awdiv@divisor:	; 2 bytes @ 0x2
  1211  0072                     	global	___awmod@divisor
  1212                           ___awmod@divisor:	; 2 bytes @ 0x2
  1213  0072                     	ds	2
  1214  0072                     ??_delay:	; 1 bytes @ 0x4
  1215  0074                     	global	dispLCD_instReg@i
  1216                           dispLCD_instReg@i:	; 1 bytes @ 0x4
  1217  0074                     	global	dispLCD_dataReg@d
  1218                           dispLCD_dataReg@d:	; 1 bytes @ 0x4
  1219  0074                     	global	___awdiv@dividend
  1220                           ___awdiv@dividend:	; 2 bytes @ 0x4
  1221  0074                     	global	___awmod@dividend
  1222                           ___awmod@dividend:	; 2 bytes @ 0x4
  1223  0074                     	ds	1
  1224  0074                     ??_dispLCD_init:	; 1 bytes @ 0x5
  1225  0075                     ??_dispLCD_clr:	; 1 bytes @ 0x5
  1226  0075                     ?_dispLCD_lincol:	; 1 bytes @ 0x5
  1227  0075                     	global	dispLCD_lincol@col
  1228                           dispLCD_lincol@col:	; 1 bytes @ 0x5
  1229  0075                     	ds	1
  1230  0075                     ??_dispLCD_lincol:	; 1 bytes @ 0x6
  1231  0076                     ??___awdiv:	; 1 bytes @ 0x6
  1232  0076                     ??___awmod:	; 1 bytes @ 0x6
  1233  0076                     	ds	1
  1234  0076                     	global	dispLCD_lincol@lin
  1235                           dispLCD_lincol@lin:	; 1 bytes @ 0x7
  1236  0077                     	global	___awmod@counter
  1237                           ___awmod@counter:	; 1 bytes @ 0x7
  1238  0077                     	ds	1
  1239  0077                     ?_dispLCD:	; 1 bytes @ 0x8
  1240  0078                     	global	dispLCD@col
  1241                           dispLCD@col:	; 1 bytes @ 0x8
  1242  0078                     	global	___awmod@sign
  1243                           ___awmod@sign:	; 1 bytes @ 0x8
  1244  0078                     	ds	1
  1245  0078                     	global	dispLCD@str
  1246                           dispLCD@str:	; 1 bytes @ 0x9
  1247  0079                     	ds	1
  1248  0079                     psect	cstackBANK0,class=BANK0,space=1,noexec
  1249                           global __pcstackBANK0
  1250                           __pcstackBANK0:
  1251  0020                     ??_dispLCD:	; 1 bytes @ 0x0
  1252  0020                     	global	___awdiv@counter
  1253                           ___awdiv@counter:	; 1 bytes @ 0x0
  1254  0020                     	ds	1
  1255  0020                     	global	dispLCD@pos
  1256                           dispLCD@pos:	; 1 bytes @ 0x1
  1257  0021                     	global	___awdiv@sign
  1258                           ___awdiv@sign:	; 1 bytes @ 0x1
  1259  0021                     	ds	1
  1260  0021                     	global	dispLCD@lin
  1261                           dispLCD@lin:	; 1 bytes @ 0x2
  1262  0022                     	global	___awdiv@quotient
  1263                           ___awdiv@quotient:	; 2 bytes @ 0x2
  1264  0022                     	ds	2
  1265  0022                     ?_dispLCD_num:	; 1 bytes @ 0x4
  1266  0024                     	global	dispLCD_num@col
  1267                           dispLCD_num@col:	; 1 bytes @ 0x4
  1268  0024                     	ds	1
  1269  0024                     	global	dispLCD_num@num
  1270                           dispLCD_num@num:	; 2 bytes @ 0x5
  1271  0025                     	ds	2
  1272  0025                     	global	dispLCD_num@tam
  1273                           dispLCD_num@tam:	; 1 bytes @ 0x7
  1274  0027                     	ds	1
  1275  0027                     ??_dispLCD_num:	; 1 bytes @ 0x8
  1276  0028                     	ds	3
  1277  0028                     	global	dispLCD_num@lin
  1278                           dispLCD_num@lin:	; 1 bytes @ 0xB
  1279  002B                     	ds	1
  1280  002B                     	global	dispLCD_num@size
  1281                           dispLCD_num@size:	; 1 bytes @ 0xC
  1282  002C                     	ds	1
  1283  002C                     	global	dispLCD_num@sinal
  1284                           dispLCD_num@sinal:	; 1 bytes @ 0xD
  1285  002D                     	ds	1
  1286  002D                     	global	dispLCD_num@div
  1287                           dispLCD_num@div:	; 2 bytes @ 0xE
  1288  002E                     	ds	2
  1289  002E                     ??_main:	; 1 bytes @ 0x10
  1290  0030                     	ds	2
  1291  0030                     	global	main@n_2
  1292                           main@n_2:	; 2 bytes @ 0x12
  1293  0032                     	ds	2
  1294  0032                     	global	main@n_1
  1295                           main@n_1:	; 2 bytes @ 0x14
  1296  0034                     	ds	2
  1297  0034                     	global	main@n
  1298                           main@n:	; 2 bytes @ 0x16
  1299  0036                     	ds	2
  1300  0036                     	global	main@tela
  1301                           main@tela:	; 2 bytes @ 0x18
  1302  0038                     	ds	2
  1303  0038                     ;!
  1304                           ;!Data Sizes:
  1305                           ;!    Strings     171
  1306                           ;!    Constant    0
  1307                           ;!    Data        0
  1308                           ;!    BSS         4
  1309                           ;!    Persistent  0
  1310                           ;!    Stack       0
  1311                           ;!
  1312                           ;!Auto Spaces:
  1313                           ;!    Space          Size  Autos    Used
  1314                           ;!    COMMON           14     10      12
  1315                           ;!    BANK0            80     26      28
  1316                           ;!    BANK1            80      0       0
  1317                           ;!    BANK3            96      0       0
  1318                           ;!    BANK2            96      0       0
  1319                           
  1320                           ;!
  1321                           ;!Pointer List with Targets:
  1322                           ;!
  1323                           ;!    dispLCD@str	PTR const unsigned char  size(1) Largest target is 20
  1324                           ;!		 -> STR_10(CODE[15]), STR_9(CODE[17]), STR_8(CODE[17]), STR_7(CODE[17]), 
  1325                           ;!		 -> STR_6(CODE[17]), STR_5(CODE[17]), STR_4(CODE[17]), STR_3(CODE[17]), 
  1326                           ;!		 -> STR_2(CODE[17]), STR_1(CODE[20]), 
  1327                           ;!
  1328                           
  1329                           
  1330                           ;!
  1331                           ;!Critical Paths under _main in COMMON
  1332                           ;!
  1333                           ;!    _main->_dispLCD
  1334                           ;!    _dispLCD_num->___awmod
  1335                           ;!    _dispLCD_init->_dispLCD_instReg
  1336                           ;!    _dispLCD_clr->_dispLCD_instReg
  1337                           ;!    _dispLCD->_dispLCD_lincol
  1338                           ;!    _dispLCD_lincol->_dispLCD_instReg
  1339                           ;!
  1340                           ;!Critical Paths under _ossada in COMMON
  1341                           ;!
  1342                           ;!    None.
  1343                           ;!
  1344                           ;!Critical Paths under _main in BANK0
  1345                           ;!
  1346                           ;!    _main->_dispLCD_num
  1347                           ;!    _dispLCD_num->___awdiv
  1348                           ;!
  1349                           ;!Critical Paths under _ossada in BANK0
  1350                           ;!
  1351                           ;!    None.
  1352                           ;!
  1353                           ;!Critical Paths under _main in BANK1
  1354                           ;!
  1355                           ;!    None.
  1356                           ;!
  1357                           ;!Critical Paths under _ossada in BANK1
  1358                           ;!
  1359                           ;!    None.
  1360                           ;!
  1361                           ;!Critical Paths under _main in BANK3
  1362                           ;!
  1363                           ;!    None.
  1364                           ;!
  1365                           ;!Critical Paths under _ossada in BANK3
  1366                           ;!
  1367                           ;!    None.
  1368                           ;!
  1369                           ;!Critical Paths under _main in BANK2
  1370                           ;!
  1371                           ;!    None.
  1372                           ;!
  1373                           ;!Critical Paths under _ossada in BANK2
  1374                           ;!
  1375                           ;!    None.
  1376                           
  1377 ;;
  1378 ;;Main: autosize = 0, tempsize = 2, incstack = 0, save=0
  1379 ;;
  1380                           
  1381                           ;!
  1382                           ;!Call Graph Tables:
  1383                           ;!
  1384                           ;! ---------------------------------------------------------------------------------
  1385                           ;! (Depth) Function   	        Calls       Base Space   Used Autos Params    Refs
  1386                           ;! ---------------------------------------------------------------------------------
  1387                           ;! (0) _main                                                10    10      0    6589
  1388                           ;!                                             16 BANK0     10    10      0
  1389                           ;!                              _delay
  1390                           ;!                            _dispLCD
  1391                           ;!                        _dispLCD_clr
  1392                           ;!                       _dispLCD_init
  1393                           ;!                        _dispLCD_num
  1394                           ;!                        _timer2_init
  1395                           ;! ---------------------------------------------------------------------------------
  1396                           ;! (1) _timer2_init                                          0     0      0       0
  1397                           ;! ---------------------------------------------------------------------------------
  1398                           ;! (1) _dispLCD_num                                         12     8      4    2946
  1399                           ;!                                              4 BANK0     12     8      4
  1400                           ;!                            ___awdiv
  1401                           ;!                            ___awmod
  1402                           ;!                    _dispLCD_dataReg
  1403                           ;!                     _dispLCD_lincol
  1404                           ;! ---------------------------------------------------------------------------------
  1405                           ;! (2) ___awmod                                              7     3      4     448
  1406                           ;!                                              2 COMMON     7     3      4
  1407                           ;! ---------------------------------------------------------------------------------
  1408                           ;! (2) ___awdiv                                              9     5      4    1165
  1409                           ;!                                              2 COMMON     5     1      4
  1410                           ;!                                              0 BANK0      4     4      0
  1411                           ;! ---------------------------------------------------------------------------------
  1412                           ;! (1) _dispLCD_init                                         0     0      0     176
  1413                           ;!                    _dispLCD_instReg
  1414                           ;! ---------------------------------------------------------------------------------
  1415                           ;! (1) _dispLCD_clr                                          0     0      0     176
  1416                           ;!                    _dispLCD_instReg
  1417                           ;! ---------------------------------------------------------------------------------
  1418                           ;! (1) _dispLCD                                              5     3      2    2380
  1419                           ;!                                              8 COMMON     2     0      2
  1420                           ;!                                              0 BANK0      3     3      0
  1421                           ;!                    _dispLCD_dataReg
  1422                           ;!                     _dispLCD_lincol
  1423                           ;! ---------------------------------------------------------------------------------
  1424                           ;! (2) _dispLCD_lincol                                       3     2      1     372
  1425                           ;!                                              5 COMMON     3     2      1
  1426                           ;!                    _dispLCD_instReg
  1427                           ;! ---------------------------------------------------------------------------------
  1428                           ;! (3) _dispLCD_instReg                                      3     3      0     176
  1429                           ;!                                              2 COMMON     3     3      0
  1430                           ;! ---------------------------------------------------------------------------------
  1431                           ;! (2) _dispLCD_dataReg                                      3     3      0      44
  1432                           ;!                                              2 COMMON     3     3      0
  1433                           ;! ---------------------------------------------------------------------------------
  1434                           ;! (1) _delay                                                3     1      2     631
  1435                           ;!                                              2 COMMON     3     1      2
  1436                           ;! ---------------------------------------------------------------------------------
  1437                           ;! Estimated maximum stack depth 3
  1438                           ;! ---------------------------------------------------------------------------------
  1439                           ;! (Depth) Function   	        Calls       Base Space   Used Autos Params    Refs
  1440                           ;! ---------------------------------------------------------------------------------
  1441                           ;! (4) _ossada                                               2     2      0       0
  1442                           ;!                                              0 COMMON     2     2      0
  1443                           ;! ---------------------------------------------------------------------------------
  1444                           ;! Estimated maximum stack depth 4
  1445                           ;! ---------------------------------------------------------------------------------
  1446                           ;!
  1447                           ;! Call Graph Graphs:
  1448                           ;!
  1449                           ;! _main (ROOT)
  1450                           ;!   _delay
  1451                           ;!   _dispLCD
  1452                           ;!     _dispLCD_dataReg
  1453                           ;!     _dispLCD_lincol
  1454                           ;!       _dispLCD_instReg
  1455                           ;!   _dispLCD_clr
  1456                           ;!     _dispLCD_instReg
  1457                           ;!   _dispLCD_init
  1458                           ;!     _dispLCD_instReg
  1459                           ;!   _dispLCD_num
  1460                           ;!     ___awdiv
  1461                           ;!     ___awmod
  1462                           ;!     _dispLCD_dataReg
  1463                           ;!     _dispLCD_lincol
  1464                           ;!       _dispLCD_instReg
  1465                           ;!   _timer2_init
  1466                           ;!
  1467                           ;! _ossada (ROOT)
  1468                           ;!
  1469                           
  1470                           ;! Address spaces:
  1471                           
  1472                           ;!Name               Size   Autos  Total    Cost      Usage
  1473                           ;!BITCOMMON            E      0       0       0        0.0%
  1474                           ;!EEDATA             100      0       0       0        0.0%
  1475                           ;!NULL                 0      0       0       0        0.0%
  1476                           ;!CODE                 0      0       0       0        0.0%
  1477                           ;!COMMON               E      A       C       1       85.7%
  1478                           ;!BITSFR0              0      0       0       1        0.0%
  1479                           ;!SFR0                 0      0       0       1        0.0%
  1480                           ;!BITSFR1              0      0       0       2        0.0%
  1481                           ;!SFR1                 0      0       0       2        0.0%
  1482                           ;!STACK                0      0       0       2        0.0%
  1483                           ;!ABS                  0      0      28       3        0.0%
  1484                           ;!BITBANK0            50      0       0       4        0.0%
  1485                           ;!BITSFR3              0      0       0       4        0.0%
  1486                           ;!SFR3                 0      0       0       4        0.0%
  1487                           ;!BANK0               50     1A      1C       5       35.0%
  1488                           ;!BITSFR2              0      0       0       5        0.0%
  1489                           ;!SFR2                 0      0       0       5        0.0%
  1490                           ;!BITBANK1            50      0       0       6        0.0%
  1491                           ;!BANK1               50      0       0       7        0.0%
  1492                           ;!BITBANK3            60      0       0       8        0.0%
  1493                           ;!BANK3               60      0       0       9        0.0%
  1494                           ;!BITBANK2            60      0       0      10        0.0%
  1495                           ;!BANK2               60      0       0      11        0.0%
  1496                           ;!DATA                 0      0      28      12        0.0%
  1497                           
  1498                           	global	_main
  1499                           
  1500 ;; *************** function _main *****************
  1501 ;; Defined at:
  1502 ;;		line 15 in file "main.c"
  1503 ;; Parameters:    Size  Location     Type
  1504 ;;		None
  1505 ;; Auto vars:     Size  Location     Type
  1506 ;;  tela            2   24[BANK0 ] int 
  1507 ;;  n               2   22[BANK0 ] int 
  1508 ;;  n_1             2   20[BANK0 ] int 
  1509 ;;  n_2             2   18[BANK0 ] int 
  1510 ;; Return value:  Size  Location     Type
  1511 ;;                  1    wreg      void 
  1512 ;; Registers used:
  1513 ;;		wreg, fsr0l, fsr0h, status,2, status,0, btemp+1, pclath, cstack
  1514 ;; Tracked objects:
  1515 ;;		On entry : B00/0
  1516 ;;		On exit  : 0/0
  1517 ;;		Unchanged: 0/0
  1518 ;; Data sizes:     COMMON   BANK0   BANK1   BANK3   BANK2
  1519 ;;      Params:         0       0       0       0       0
  1520 ;;      Locals:         0       8       0       0       0
  1521 ;;      Temps:          0       2       0       0       0
  1522 ;;      Totals:         0      10       0       0       0
  1523 ;;Total ram usage:       10 bytes
  1524 ;; Hardware stack levels required when called:    4
  1525 ;; This function calls:
  1526 ;;		_delay
  1527 ;;		_dispLCD
  1528 ;;		_dispLCD_clr
  1529 ;;		_dispLCD_init
  1530 ;;		_dispLCD_num
  1531 ;;		_timer2_init
  1532 ;; This function is called by:
  1533 ;;		Startup code after reset
  1534 ;; This function uses a non-reentrant model
  1535 ;;
  1536                           psect	maintext,global,class=CODE,delta=2,split=1,group=0
  1537                           	file	"main.c"
  1538                           	line	15
  1539                           global __pmaintext
  1540                           __pmaintext:	;psect for function _main
  1541  0019                     psect	maintext
  1542                           	file	"main.c"
  1543                           	line	15
  1544                           	global	__size_of_main
  1545                           	__size_of_main	equ	__end_of_main-_main
  1546  018A                     	
  1547                           _main:	
  1548  0019                     ;incstack = 0
  1549                           	opt	stack 4
  1550                           ; Regs used in _main: [wreg-fsr0h+status,2+status,0+btemp+1+pclath+cstack]
  1551                           	line	17
  1552                           	
  1553                           l1474:	
  1554  0019                     ;main.c: 17:     int tela = 0;
  1555                           	bcf	status, 5	;RP0=0, select bank0
  1556  0019  1283               	bcf	status, 6	;RP1=0, select bank0
  1557  001A  1303               	clrf	(main@tela)
  1558  001B  01B8               	clrf	(main@tela+1)
  1559  001C  01B9               	line	18
  1560                           	
  1561                           l1476:	
  1562  001D                     ;main.c: 18:     int n = 1;
  1563                           	movlw	01h
  1564  001D  3001               	movwf	(main@n)
  1565  001E  00B6               	movlw	0
  1566  001F  3000               	movwf	((main@n))+1
  1567  0020  00B7               	line	19
  1568                           	
  1569                           l1478:	
  1570  0021                     ;main.c: 19:     int n_1 = 0;
  1571                           	clrf	(main@n_1)
  1572  0021  01B4               	clrf	(main@n_1+1)
  1573  0022  01B5               	line	20
  1574                           	
  1575                           l1480:	
  1576  0023                     ;main.c: 20:     int n_2 = 0;
  1577                           	clrf	(main@n_2)
  1578  0023  01B2               	clrf	(main@n_2+1)
  1579  0024  01B3               	line	22
  1580                           	
  1581                           l1482:	
  1582  0025                     ;main.c: 22:     dispLCD_init();
  1583                           	fcall	_dispLCD_init
  1584  0025  120A  118A  2597  120A  118A  	line	23
  1585                           	
  1586                           l1484:	
  1587  002A                     ;main.c: 23:     timer2_init();
  1588                           	fcall	_timer2_init
  1589  002A  120A  118A  25E5  120A  118A  	goto	l1554
  1590  002F  2977               	line	25
  1591                           ;main.c: 25:     while( 1 )
  1592                           	
  1593                           l21:	
  1594  0030                     	line	27
  1595                           ;main.c: 26:     {;main.c: 27:         switch( tela )
  1596                           	goto	l1554
  1597  0030  2977               	line	29
  1598                           ;main.c: 28:         {;main.c: 29:             case 0: dispLCD(0,0,"Contador:          "
                                 );
  1599                           	
  1600                           l23:	
  1601  0031                     	
  1602                           l1486:	
  1603  0031                     	clrf	(dispLCD@col)
  1604  0031  01F8               	movlw	(low((((STR_1)-__stringbase)|8000h)))&0ffh
  1605  0032  3001               	bcf	status, 5	;RP0=0, select bank0
  1606  0033  1283               	bcf	status, 6	;RP1=0, select bank0
  1607  0034  1303               	movwf	(??_main+0)+0
  1608  0035  00B0               	movf	(??_main+0)+0,w
  1609  0036  0830               	movwf	(dispLCD@str)
  1610  0037  00F9               	movlw	low(0)
  1611  0038  3000               	fcall	_dispLCD
  1612  0039  120A  118A  2507  120A  118A  	line	30
  1613                           	
  1614                           l1488:	
  1615  003E                     ;main.c: 30:                     tela = 1;
  1616                           	movlw	01h
  1617  003E  3001               	bcf	status, 5	;RP0=0, select bank0
  1618  003F  1283               	bcf	status, 6	;RP1=0, select bank0
  1619  0040  1303               	movwf	(main@tela)
  1620  0041  00B8               	movlw	0
  1621  0042  3000               	movwf	((main@tela))+1
  1622  0043  00B9               	line	31
  1623                           	
  1624                           l1490:	
  1625  0044                     ;main.c: 31:                     delay(1000);
  1626                           	movlw	0E8h
  1627  0044  30E8               	movwf	(delay@t)
  1628  0045  00F2               	movlw	03h
  1629  0046  3003               	movwf	((delay@t))+1
  1630  0047  00F3               	fcall	_delay
  1631  0048  120A  118A  25BB  120A  118A  	line	32
  1632                           ;main.c: 32:                     break;
  1633                           	goto	l1554
  1634  004D  2977               	line	34
  1635                           ;main.c: 34:             case 1: dispLCD(1,0,"    HD44780     ");
  1636                           	
  1637                           l25:	
  1638  004E                     	
  1639                           l1492:	
  1640  004E                     	clrf	(dispLCD@col)
  1641  004E  01F8               	movlw	(low((((STR_2)-__stringbase)|8000h)))&0ffh
  1642  004F  3037               	bcf	status, 5	;RP0=0, select bank0
  1643  0050  1283               	bcf	status, 6	;RP1=0, select bank0
  1644  0051  1303               	movwf	(??_main+0)+0
  1645  0052  00B0               	movf	(??_main+0)+0,w
  1646  0053  0830               	movwf	(dispLCD@str)
  1647  0054  00F9               	movlw	low(01h)
  1648  0055  3001               	fcall	_dispLCD
  1649  0056  120A  118A  2507  120A  118A  	line	35
  1650                           	
  1651                           l1494:	
  1652  005B                     ;main.c: 35:                     tela = 2;
  1653                           	movlw	02h
  1654  005B  3002               	bcf	status, 5	;RP0=0, select bank0
  1655  005C  1283               	bcf	status, 6	;RP1=0, select bank0
  1656  005D  1303               	movwf	(main@tela)
  1657  005E  00B8               	movlw	0
  1658  005F  3000               	movwf	((main@tela))+1
  1659  0060  00B9               	line	36
  1660                           	
  1661                           l1496:	
  1662  0061                     ;main.c: 36:                     delay(2000);
  1663                           	movlw	0D0h
  1664  0061  30D0               	movwf	(delay@t)
  1665  0062  00F2               	movlw	07h
  1666  0063  3007               	movwf	((delay@t))+1
  1667  0064  00F3               	fcall	_delay
  1668  0065  120A  118A  25BB  120A  118A  	line	37
  1669                           ;main.c: 37:                     break;
  1670                           	goto	l1554
  1671  006A  2977               	line	39
  1672                           ;main.c: 39:             case 2: dispLCD_clr();
  1673                           	
  1674                           l26:	
  1675  006B                     	
  1676                           l1498:	
  1677  006B                     	fcall	_dispLCD_clr
  1678  006B  120A  118A  25F7  120A  118A  	line	40
  1679                           	
  1680                           l1500:	
  1681  0070                     ;main.c: 40:                     tela = 3;
  1682                           	movlw	03h
  1683  0070  3003               	bcf	status, 5	;RP0=0, select bank0
  1684  0071  1283               	bcf	status, 6	;RP1=0, select bank0
  1685  0072  1303               	movwf	(main@tela)
  1686  0073  00B8               	movlw	0
  1687  0074  3000               	movwf	((main@tela))+1
  1688  0075  00B9               	line	41
  1689                           	
  1690                           l1502:	
  1691  0076                     ;main.c: 41:                     delay(500);
  1692                           	movlw	0F4h
  1693  0076  30F4               	movwf	(delay@t)
  1694  0077  00F2               	movlw	01h
  1695  0078  3001               	movwf	((delay@t))+1
  1696  0079  00F3               	fcall	_delay
  1697  007A  120A  118A  25BB  120A  118A  	line	42
  1698                           ;main.c: 42:                     break;
  1699                           	goto	l1554
  1700  007F  2977               	line	44
  1701                           ;main.c: 44:             case 3: dispLCD(0,0," dispLCD_init() ");
  1702                           	
  1703                           l27:	
  1704  0080                     	
  1705                           l1504:	
  1706  0080                     	clrf	(dispLCD@col)
  1707  0080  01F8               	movlw	(low((((STR_3)-__stringbase)|8000h)))&0ffh
  1708  0081  307B               	bcf	status, 5	;RP0=0, select bank0
  1709  0082  1283               	bcf	status, 6	;RP1=0, select bank0
  1710  0083  1303               	movwf	(??_main+0)+0
  1711  0084  00B0               	movf	(??_main+0)+0,w
  1712  0085  0830               	movwf	(dispLCD@str)
  1713  0086  00F9               	movlw	low(0)
  1714  0087  3000               	fcall	_dispLCD
  1715  0088  120A  118A  2507  120A  118A  	line	45
  1716                           ;main.c: 45:                     dispLCD(1,0,"  inicializa    ");
  1717                           	clrf	(dispLCD@col)
  1718  008D  01F8               	movlw	(low((((STR_4)-__stringbase)|8000h)))&0ffh
  1719  008E  3059               	bcf	status, 5	;RP0=0, select bank0
  1720  008F  1283               	bcf	status, 6	;RP1=0, select bank0
  1721  0090  1303               	movwf	(??_main+0)+0
  1722  0091  00B0               	movf	(??_main+0)+0,w
  1723  0092  0830               	movwf	(dispLCD@str)
  1724  0093  00F9               	movlw	low(01h)
  1725  0094  3001               	fcall	_dispLCD
  1726  0095  120A  118A  2507  120A  118A  	line	46
  1727                           	
  1728                           l1506:	
  1729  009A                     ;main.c: 46:                     tela = 4;
  1730                           	movlw	04h
  1731  009A  3004               	bcf	status, 5	;RP0=0, select bank0
  1732  009B  1283               	bcf	status, 6	;RP1=0, select bank0
  1733  009C  1303               	movwf	(main@tela)
  1734  009D  00B8               	movlw	0
  1735  009E  3000               	movwf	((main@tela))+1
  1736  009F  00B9               	line	47
  1737                           	
  1738                           l1508:	
  1739  00A0                     ;main.c: 47:                     delay(1000);
  1740                           	movlw	0E8h
  1741  00A0  30E8               	movwf	(delay@t)
  1742  00A1  00F2               	movlw	03h
  1743  00A2  3003               	movwf	((delay@t))+1
  1744  00A3  00F3               	fcall	_delay
  1745  00A4  120A  118A  25BB  120A  118A  	line	48
  1746                           ;main.c: 48:                     break;
  1747                           	goto	l1554
  1748  00A9  2977               	line	50
  1749                           ;main.c: 50:             case 4: dispLCD(0,0,"dispLCD(l,c,str)");
  1750                           	
  1751                           l28:	
  1752  00AA                     	
  1753                           l1510:	
  1754  00AA                     	clrf	(dispLCD@col)
  1755  00AA  01F8               	movlw	(low((((STR_5)-__stringbase)|8000h)))&0ffh
  1756  00AB  308C               	bcf	status, 5	;RP0=0, select bank0
  1757  00AC  1283               	bcf	status, 6	;RP1=0, select bank0
  1758  00AD  1303               	movwf	(??_main+0)+0
  1759  00AE  00B0               	movf	(??_main+0)+0,w
  1760  00AF  0830               	movwf	(dispLCD@str)
  1761  00B0  00F9               	movlw	low(0)
  1762  00B1  3000               	fcall	_dispLCD
  1763  00B2  120A  118A  2507  120A  118A  	line	51
  1764                           ;main.c: 51:                     dispLCD(1,0,"l: linha        ");
  1765                           	clrf	(dispLCD@col)
  1766  00B7  01F8               	movlw	(low((((STR_6)-__stringbase)|8000h)))&0ffh
  1767  00B8  3015               	bcf	status, 5	;RP0=0, select bank0
  1768  00B9  1283               	bcf	status, 6	;RP1=0, select bank0
  1769  00BA  1303               	movwf	(??_main+0)+0
  1770  00BB  00B0               	movf	(??_main+0)+0,w
  1771  00BC  0830               	movwf	(dispLCD@str)
  1772  00BD  00F9               	movlw	low(01h)
  1773  00BE  3001               	fcall	_dispLCD
  1774  00BF  120A  118A  2507  120A  118A  	line	52
  1775                           	
  1776                           l1512:	
  1777  00C4                     ;main.c: 52:                     tela = 5;
  1778                           	movlw	05h
  1779  00C4  3005               	bcf	status, 5	;RP0=0, select bank0
  1780  00C5  1283               	bcf	status, 6	;RP1=0, select bank0
  1781  00C6  1303               	movwf	(main@tela)
  1782  00C7  00B8               	movlw	0
  1783  00C8  3000               	movwf	((main@tela))+1
  1784  00C9  00B9               	line	53
  1785                           	
  1786                           l1514:	
  1787  00CA                     ;main.c: 53:                     delay(2000);
  1788                           	movlw	0D0h
  1789  00CA  30D0               	movwf	(delay@t)
  1790  00CB  00F2               	movlw	07h
  1791  00CC  3007               	movwf	((delay@t))+1
  1792  00CD  00F3               	fcall	_delay
  1793  00CE  120A  118A  25BB  120A  118A  	line	54
  1794                           ;main.c: 54:                     break;
  1795                           	goto	l1554
  1796  00D3  2977               	line	56
  1797                           ;main.c: 56:             case 5: dispLCD(1,0,"c: coluna       ");
  1798                           	
  1799                           l29:	
  1800  00D4                     	
  1801                           l1516:	
  1802  00D4                     	clrf	(dispLCD@col)
  1803  00D4  01F8               	movlw	(low((((STR_7)-__stringbase)|8000h)))&0ffh
  1804  00D5  3026               	bcf	status, 5	;RP0=0, select bank0
  1805  00D6  1283               	bcf	status, 6	;RP1=0, select bank0
  1806  00D7  1303               	movwf	(??_main+0)+0
  1807  00D8  00B0               	movf	(??_main+0)+0,w
  1808  00D9  0830               	movwf	(dispLCD@str)
  1809  00DA  00F9               	movlw	low(01h)
  1810  00DB  3001               	fcall	_dispLCD
  1811  00DC  120A  118A  2507  120A  118A  	line	57
  1812                           	
  1813                           l1518:	
  1814  00E1                     ;main.c: 57:                     tela = 6;
  1815                           	movlw	06h
  1816  00E1  3006               	bcf	status, 5	;RP0=0, select bank0
  1817  00E2  1283               	bcf	status, 6	;RP1=0, select bank0
  1818  00E3  1303               	movwf	(main@tela)
  1819  00E4  00B8               	movlw	0
  1820  00E5  3000               	movwf	((main@tela))+1
  1821  00E6  00B9               	line	58
  1822                           	
  1823                           l1520:	
  1824  00E7                     ;main.c: 58:                     delay(1000);
  1825                           	movlw	0E8h
  1826  00E7  30E8               	movwf	(delay@t)
  1827  00E8  00F2               	movlw	03h
  1828  00E9  3003               	movwf	((delay@t))+1
  1829  00EA  00F3               	fcall	_delay
  1830  00EB  120A  118A  25BB  120A  118A  	line	59
  1831                           ;main.c: 59:                     break;
  1832                           	goto	l1554
  1833  00F0  2977               	line	61
  1834                           ;main.c: 61:             case 6: dispLCD(1,0,"str: string     ");
  1835                           	
  1836                           l30:	
  1837  00F1                     	
  1838                           l1522:	
  1839  00F1                     	clrf	(dispLCD@col)
  1840  00F1  01F8               	movlw	(low((((STR_8)-__stringbase)|8000h)))&0ffh
  1841  00F2  3048               	bcf	status, 5	;RP0=0, select bank0
  1842  00F3  1283               	bcf	status, 6	;RP1=0, select bank0
  1843  00F4  1303               	movwf	(??_main+0)+0
  1844  00F5  00B0               	movf	(??_main+0)+0,w
  1845  00F6  0830               	movwf	(dispLCD@str)
  1846  00F7  00F9               	movlw	low(01h)
  1847  00F8  3001               	fcall	_dispLCD
  1848  00F9  120A  118A  2507  120A  118A  	line	62
  1849                           	
  1850                           l1524:	
  1851  00FE                     ;main.c: 62:                     tela = 10;
  1852                           	movlw	0Ah
  1853  00FE  300A               	bcf	status, 5	;RP0=0, select bank0
  1854  00FF  1283               	bcf	status, 6	;RP1=0, select bank0
  1855  0100  1303               	movwf	(main@tela)
  1856  0101  00B8               	movlw	0
  1857  0102  3000               	movwf	((main@tela))+1
  1858  0103  00B9               	line	63
  1859                           	
  1860                           l1526:	
  1861  0104                     ;main.c: 63:                     delay(1500);
  1862                           	movlw	0DCh
  1863  0104  30DC               	movwf	(delay@t)
  1864  0105  00F2               	movlw	05h
  1865  0106  3005               	movwf	((delay@t))+1
  1866  0107  00F3               	fcall	_delay
  1867  0108  120A  118A  25BB  120A  118A  	line	64
  1868                           ;main.c: 64:                     break;
  1869                           	goto	l1554
  1870  010D  2977               	line	66
  1871                           ;main.c: 66:             case 10:
  1872                           	
  1873                           l31:	
  1874  010E                     	line	67
  1875                           	
  1876                           l1528:	
  1877  010E                     ;main.c: 67:                     dispLCD(0,0,"  Display LCD   ");
  1878                           	clrf	(dispLCD@col)
  1879  010E  01F8               	movlw	(low((((STR_9)-__stringbase)|8000h)))&0ffh
  1880  010F  306A               	bcf	status, 5	;RP0=0, select bank0
  1881  0110  1283               	bcf	status, 6	;RP1=0, select bank0
  1882  0111  1303               	movwf	(??_main+0)+0
  1883  0112  00B0               	movf	(??_main+0)+0,w
  1884  0113  0830               	movwf	(dispLCD@str)
  1885  0114  00F9               	movlw	low(0)
  1886  0115  3000               	fcall	_dispLCD
  1887  0116  120A  118A  2507  120A  118A  	line	68
  1888                           ;main.c: 68:                     dispLCD(1,0,"GUSTAVO:      ");
  1889                           	clrf	(dispLCD@col)
  1890  011B  01F8               	movlw	(low((((STR_10)-__stringbase)|8000h)))&0ffh
  1891  011C  309D               	bcf	status, 5	;RP0=0, select bank0
  1892  011D  1283               	bcf	status, 6	;RP1=0, select bank0
  1893  011E  1303               	movwf	(??_main+0)+0
  1894  011F  00B0               	movf	(??_main+0)+0,w
  1895  0120  0830               	movwf	(dispLCD@str)
  1896  0121  00F9               	movlw	low(01h)
  1897  0122  3001               	fcall	_dispLCD
  1898  0123  120A  118A  2507  120A  118A  	line	69
  1899                           	
  1900                           l1530:	
  1901  0128                     ;main.c: 69:                     n_2 = n_1 = 0;
  1902                           	bcf	status, 5	;RP0=0, select bank0
  1903  0128  1283               	bcf	status, 6	;RP1=0, select bank0
  1904  0129  1303               	clrf	(main@n_1)
  1905  012A  01B4               	clrf	(main@n_1+1)
  1906  012B  01B5               	clrf	(main@n_2)
  1907  012C  01B2               	clrf	(main@n_2+1)
  1908  012D  01B3               	line	70
  1909                           	
  1910                           l1532:	
  1911  012E                     ;main.c: 70:                     n = 1;
  1912                           	movlw	01h
  1913  012E  3001               	movwf	(main@n)
  1914  012F  00B6               	movlw	0
  1915  0130  3000               	movwf	((main@n))+1
  1916  0131  00B7               	line	71
  1917                           	
  1918                           l1534:	
  1919  0132                     ;main.c: 71:                     tela = 11;
  1920                           	movlw	0Bh
  1921  0132  300B               	movwf	(main@tela)
  1922  0133  00B8               	movlw	0
  1923  0134  3000               	movwf	((main@tela))+1
  1924  0135  00B9               	line	72
  1925                           ;main.c: 72:                     break;
  1926                           	goto	l1554
  1927  0136  2977               	line	74
  1928                           ;main.c: 74:             case 11:
  1929                           	
  1930                           l32:	
  1931  0137                     	line	75
  1932                           	
  1933                           l1536:	
  1934  0137                     ;main.c: 75:                     n_2 = n_1;
  1935                           	movf	(main@n_1+1),w
  1936  0137  0835               	movwf	(main@n_2+1)
  1937  0138  00B3               	movf	(main@n_1),w
  1938  0139  0834               	movwf	(main@n_2)
  1939  013A  00B2               	line	76
  1940                           ;main.c: 76:                     n_1 = n;
  1941                           	movf	(main@n+1),w
  1942  013B  0837               	movwf	(main@n_1+1)
  1943  013C  00B5               	movf	(main@n),w
  1944  013D  0836               	movwf	(main@n_1)
  1945  013E  00B4               	line	77
  1946                           	
  1947                           l1538:	
  1948  013F                     ;main.c: 77:                     n = n_1 + n_2;
  1949                           	movf	(main@n_2),w
  1950  013F  0832               	addwf	(main@n_1),w
  1951  0140  0734               	movwf	(main@n)
  1952  0141  00B6               	movf	(main@n_2+1),w
  1953  0142  0833               	skipnc
  1954  0143  1803               	incf	(main@n_2+1),w
  1955  0144  0A33               	addwf	(main@n_1+1),w
  1956  0145  0735               	movwf	1+(main@n)
  1957  0146  00B7               	line	78
  1958                           	
  1959                           l1540:	
  1960  0147                     ;main.c: 78:                     if( n < 0 )
  1961                           	btfss	(main@n+1),7
  1962  0147  1FB7               	goto	u1051
  1963  0148  294A               	goto	u1050
  1964  0149  294B               u1051:
  1965  014A                     	goto	l1544
  1966  014A  294E               u1050:
  1967  014B                     	line	79
  1968                           	
  1969                           l1542:	
  1970  014B                     ;main.c: 79:                         tela = 0;
  1971                           	clrf	(main@tela)
  1972  014B  01B8               	clrf	(main@tela+1)
  1973  014C  01B9               	goto	l1554
  1974  014D  2977               	line	80
  1975                           ;main.c: 80:                     else
  1976                           	
  1977                           l33:	
  1978  014E                     	line	81
  1979                           	
  1980                           l1544:	
  1981  014E                     ;main.c: 81:                         tela = 12;
  1982                           	movlw	0Ch
  1983  014E  300C               	movwf	(main@tela)
  1984  014F  00B8               	movlw	0
  1985  0150  3000               	movwf	((main@tela))+1
  1986  0151  00B9               	goto	l1554
  1987  0152  2977               	
  1988                           l34:	
  1989  0153                     	line	82
  1990                           ;main.c: 82:                     break;
  1991                           	goto	l1554
  1992  0153  2977               	line	84
  1993                           ;main.c: 84:             case 12:
  1994                           	
  1995                           l35:	
  1996  0154                     	line	85
  1997                           	
  1998                           l1546:	
  1999  0154                     ;main.c: 85:                     dispLCD_num(1,11, n, 5 );
  2000                           	movlw	low(0Bh)
  2001  0154  300B               	movwf	(??_main+0)+0
  2002  0155  00B0               	movf	(??_main+0)+0,w
  2003  0156  0830               	movwf	(dispLCD_num@col)
  2004  0157  00A4               	movf	(main@n+1),w
  2005  0158  0837               	movwf	(dispLCD_num@num+1)
  2006  0159  00A6               	movf	(main@n),w
  2007  015A  0836               	movwf	(dispLCD_num@num)
  2008  015B  00A5               	movlw	low(05h)
  2009  015C  3005               	movwf	(??_main+1)+0
  2010  015D  00B1               	movf	(??_main+1)+0,w
  2011  015E  0831               	movwf	(dispLCD_num@tam)
  2012  015F  00A7               	movlw	low(01h)
  2013  0160  3001               	fcall	_dispLCD_num
  2014  0161  120A  118A  21A3  120A  118A  	line	86
  2015                           	
  2016                           l1548:	
  2017  0166                     ;main.c: 86:                     tela = 11;
  2018                           	movlw	0Bh
  2019  0166  300B               	bcf	status, 5	;RP0=0, select bank0
  2020  0167  1283               	bcf	status, 6	;RP1=0, select bank0
  2021  0168  1303               	movwf	(main@tela)
  2022  0169  00B8               	movlw	0
  2023  016A  3000               	movwf	((main@tela))+1
  2024  016B  00B9               	line	87
  2025                           	
  2026                           l1550:	
  2027  016C                     ;main.c: 87:                     delay(1000);
  2028                           	movlw	0E8h
  2029  016C  30E8               	movwf	(delay@t)
  2030  016D  00F2               	movlw	03h
  2031  016E  3003               	movwf	((delay@t))+1
  2032  016F  00F3               	fcall	_delay
  2033  0170  120A  118A  25BB  120A  118A  	line	88
  2034                           ;main.c: 88:                     break;
  2035                           	goto	l1554
  2036  0175  2977               	line	89
  2037                           	
  2038                           l1552:	
  2039  0176                     ;main.c: 89:         }
  2040                           	goto	l1554
  2041  0176  2977               	
  2042                           l22:	
  2043  0177                     	
  2044                           l1554:	
  2045  0177                     	; Switch on 2 bytes has been partitioned into a top level switch of size 1, and 1 sub-s
                                 witches
  2046                           ; Switch size 1, requested type "space"
  2047                           ; Number of cases is 1, Range of values is 0 to 0
  2048                           ; switch strategies available:
  2049                           ; Name         Instructions Cycles
  2050                           ; simple_byte            4     3 (average)
  2051                           ; direct_byte           11     8 (fixed)
  2052                           ; jumptable            260     6 (fixed)
  2053                           ;	Chosen strategy is simple_byte
  2054                           
  2055                           	bcf	status, 5	;RP0=0, select bank0
  2056  0177  1283               	bcf	status, 6	;RP1=0, select bank0
  2057  0178  1303               	movf (main@tela+1),w
  2058  0179  0839               	opt asmopt_push
  2059                           	opt asmopt_off
  2060                           	xorlw	0^0	; case 0
  2061  017A  3A00               	skipnz
  2062  017B  1903               	goto	l1592
  2063  017C  297E               	goto	l1554
  2064  017D  2977               	opt asmopt_pop
  2065                           	
  2066                           l1592:	
  2067  017E                     ; Switch size 1, requested type "space"
  2068                           ; Number of cases is 10, Range of values is 0 to 12
  2069                           ; switch strategies available:
  2070                           ; Name         Instructions Cycles
  2071                           ; simple_byte           31    16 (average)
  2072                           ; direct_byte           47     8 (fixed)
  2073                           ; jumptable            260     6 (fixed)
  2074                           ;	Chosen strategy is simple_byte
  2075                           
  2076                           	movf (main@tela),w
  2077  017E  0838               	opt asmopt_push
  2078                           	opt asmopt_off
  2079                           	xorlw	0^0	; case 0
  2080  017F  3A00               	skipnz
  2081  0180  1903               	goto	l1486
  2082  0181  2831               	xorlw	1^0	; case 1
  2083  0182  3A01               	skipnz
  2084  0183  1903               	goto	l1492
  2085  0184  284E               	xorlw	2^1	; case 2
  2086  0185  3A03               	skipnz
  2087  0186  1903               	goto	l1498
  2088  0187  286B               	xorlw	3^2	; case 3
  2089  0188  3A01               	skipnz
  2090  0189  1903               	goto	l1504
  2091  018A  2880               	xorlw	4^3	; case 4
  2092  018B  3A07               	skipnz
  2093  018C  1903               	goto	l1510
  2094  018D  28AA               	xorlw	5^4	; case 5
  2095  018E  3A01               	skipnz
  2096  018F  1903               	goto	l1516
  2097  0190  28D4               	xorlw	6^5	; case 6
  2098  0191  3A03               	skipnz
  2099  0192  1903               	goto	l1522
  2100  0193  28F1               	xorlw	10^6	; case 10
  2101  0194  3A0C               	skipnz
  2102  0195  1903               	goto	l1528
  2103  0196  290E               	xorlw	11^10	; case 11
  2104  0197  3A01               	skipnz
  2105  0198  1903               	goto	l1536
  2106  0199  2937               	xorlw	12^11	; case 12
  2107  019A  3A07               	skipnz
  2108  019B  1903               	goto	l1546
  2109  019C  2954               	goto	l1554
  2110  019D  2977               	opt asmopt_pop
  2111                           
  2112                           	
  2113                           l24:	
  2114  019E                     	goto	l1554
  2115  019E  2977               	line	90
  2116                           ;main.c: 90:    }
  2117                           	
  2118                           l36:	
  2119  019F                     	goto	l1554
  2120  019F  2977               	
  2121                           l37:	
  2122  01A0                     	line	92
  2123                           ;main.c: 91:     return;
  2124                           	
  2125                           l38:	
  2126  01A0                     	global	start
  2127                           	ljmp	start
  2128  01A0  120A  118A  280C   	opt stack 0
  2129                           GLOBAL	__end_of_main
  2130                           	__end_of_main:
  2131  01A3                     	signat	_main,89
  2132                           	global	_timer2_init
  2133                           
  2134 ;; *************** function _timer2_init *****************
  2135 ;; Defined at:
  2136 ;;		line 16 in file "timer.c"
  2137 ;; Parameters:    Size  Location     Type
  2138 ;;		None
  2139 ;; Auto vars:     Size  Location     Type
  2140 ;;		None
  2141 ;; Return value:  Size  Location     Type
  2142 ;;                  1    wreg      void 
  2143 ;; Registers used:
  2144 ;;		wreg, status,2, status,0
  2145 ;; Tracked objects:
  2146 ;;		On entry : 0/0
  2147 ;;		On exit  : 0/0
  2148 ;;		Unchanged: 0/0
  2149 ;; Data sizes:     COMMON   BANK0   BANK1   BANK3   BANK2
  2150 ;;      Params:         0       0       0       0       0
  2151 ;;      Locals:         0       0       0       0       0
  2152 ;;      Temps:          0       0       0       0       0
  2153 ;;      Totals:         0       0       0       0       0
  2154 ;;Total ram usage:        0 bytes
  2155 ;; Hardware stack levels used:    1
  2156 ;; Hardware stack levels required when called:    1
  2157 ;; This function calls:
  2158 ;;		Nothing
  2159 ;; This function is called by:
  2160 ;;		_main
  2161 ;; This function uses a non-reentrant model
  2162 ;;
  2163                           psect	text1,local,class=CODE,delta=2,merge=1,group=0
  2164                           	file	"timer.c"
  2165                           	line	16
  2166                           global __ptext1
  2167                           __ptext1:	;psect for function _timer2_init
  2168  05E5                     psect	text1
  2169                           	file	"timer.c"
  2170                           	line	16
  2171                           	global	__size_of_timer2_init
  2172                           	__size_of_timer2_init	equ	__end_of_timer2_init-_timer2_init
  2173  0012                     	
  2174                           _timer2_init:	
  2175  05E5                     ;incstack = 0
  2176                           	opt	stack 6
  2177                           ; Regs used in _timer2_init: [wreg+status,2+status,0]
  2178                           	line	18
  2179                           	
  2180                           l1186:	
  2181  05E5                     ;timer.c: 18:     INTCONbits.GIE = 0;
  2182                           	bcf	(11),7	;volatile
  2183  05E5  138B               	line	19
  2184                           	
  2185                           l1188:	
  2186  05E6                     ;timer.c: 19:     T2CONbits.T2CKPS = 00;
  2187                           	movlw	((0 & ((1<<2)-1))<<0)|not (((1<<2)-1)<<0)
  2188  05E6  30FC               	bcf	status, 5	;RP0=0, select bank0
  2189  05E7  1283               	bcf	status, 6	;RP1=0, select bank0
  2190  05E8  1303               	andwf	(18),f	;volatile
  2191  05E9  0592               	line	20
  2192                           ;timer.c: 20:     T2CONbits.TOUTPS = 0000;
  2193                           	movlw	((0 & ((1<<4)-1))<<3)|not (((1<<4)-1)<<3)
  2194  05EA  3087               	andwf	(18),f	;volatile
  2195  05EB  0592               	line	21
  2196                           	
  2197                           l1190:	
  2198  05EC                     ;timer.c: 21:     TMR2 = 256-156;
  2199                           	movlw	low(064h)
  2200  05EC  3064               	movwf	(17)	;volatile
  2201  05ED  0091               	line	22
  2202                           	
  2203                           l1192:	
  2204  05EE                     ;timer.c: 22:     contador = 0;
  2205                           	clrf	(_contador)
  2206  05EE  01BA               	clrf	(_contador+1)
  2207  05EF  01BB               	line	23
  2208                           	
  2209                           l1194:	
  2210  05F0                     ;timer.c: 23:     t2seg = 10000;
  2211                           	movlw	010h
  2212  05F0  3010               	movwf	(_t2seg)
  2213  05F1  00FA               	movlw	027h
  2214  05F2  3027               	movwf	((_t2seg))+1
  2215  05F3  00FB               	line	24
  2216                           	
  2217                           l1196:	
  2218  05F4                     ;timer.c: 24:     INTCONbits.PEIE = 1;
  2219                           	bsf	(11),6	;volatile
  2220  05F4  170B               	line	25
  2221                           	
  2222                           l1198:	
  2223  05F5                     ;timer.c: 25:     INTCONbits.GIE = 1;
  2224                           	bsf	(11),7	;volatile
  2225  05F5  178B               	line	26
  2226                           	
  2227                           l112:	
  2228  05F6                     	return
  2229  05F6  0008               	opt stack 0
  2230                           GLOBAL	__end_of_timer2_init
  2231                           	__end_of_timer2_init:
  2232  05F7                     	signat	_timer2_init,89
  2233                           	global	_dispLCD_num
  2234                           
  2235 ;; *************** function _dispLCD_num *****************
  2236 ;; Defined at:
  2237 ;;		line 161 in file "dispLCD4vias.c"
  2238 ;; Parameters:    Size  Location     Type
  2239 ;;  lin             1    wreg     unsigned char 
  2240 ;;  col             1    4[BANK0 ] unsigned char 
  2241 ;;  num             2    5[BANK0 ] int 
  2242 ;;  tam             1    7[BANK0 ] unsigned char 
  2243 ;; Auto vars:     Size  Location     Type
  2244 ;;  lin             1   11[BANK0 ] unsigned char 
  2245 ;;  div             2   14[BANK0 ] int 
  2246 ;;  sinal           1   13[BANK0 ] unsigned char 
  2247 ;;  size            1   12[BANK0 ] unsigned char 
  2248 ;; Return value:  Size  Location     Type
  2249 ;;                  1    wreg      void 
  2250 ;; Registers used:
  2251 ;;		wreg, status,2, status,0, btemp+1, pclath, cstack
  2252 ;; Tracked objects:
  2253 ;;		On entry : 0/0
  2254 ;;		On exit  : 0/0
  2255 ;;		Unchanged: 0/0
  2256 ;; Data sizes:     COMMON   BANK0   BANK1   BANK3   BANK2
  2257 ;;      Params:         0       4       0       0       0
  2258 ;;      Locals:         0       5       0       0       0
  2259 ;;      Temps:          0       3       0       0       0
  2260 ;;      Totals:         0      12       0       0       0
  2261 ;;Total ram usage:       12 bytes
  2262 ;; Hardware stack levels used:    1
  2263 ;; Hardware stack levels required when called:    3
  2264 ;; This function calls:
  2265 ;;		___awdiv
  2266 ;;		___awmod
  2267 ;;		_dispLCD_dataReg
  2268 ;;		_dispLCD_lincol
  2269 ;; This function is called by:
  2270 ;;		_main
  2271 ;; This function uses a non-reentrant model
  2272 ;;
  2273                           psect	text2,local,class=CODE,delta=2,merge=1,group=0
  2274                           	file	"dispLCD4vias.c"
  2275                           	line	161
  2276                           global __ptext2
  2277                           __ptext2:	;psect for function _dispLCD_num
  2278  01A3                     psect	text2
  2279                           	file	"dispLCD4vias.c"
  2280                           	line	161
  2281                           	global	__size_of_dispLCD_num
  2282                           	__size_of_dispLCD_num	equ	__end_of_dispLCD_num-_dispLCD_num
  2283  00EE                     	
  2284                           _dispLCD_num:	
  2285  01A3                     ;incstack = 0
  2286                           	opt	stack 4
  2287                           ; Regs used in _dispLCD_num: [wreg+status,2+status,0+btemp+1+pclath+cstack]
  2288                           ;dispLCD_num@lin stored from wreg
  2289                           	bcf	status, 5	;RP0=0, select bank0
  2290  01A3  1283               	bcf	status, 6	;RP1=0, select bank0
  2291  01A4  1303               	movwf	(dispLCD_num@lin)
  2292  01A5  00AB               	line	168
  2293                           	
  2294                           l1440:	
  2295  01A6                     ;dispLCD4vias.c: 161: void dispLCD_num( unsigned char lin, unsigned char col,;dispLCD4vi
                                 as.c: 162:                     int num, unsigned char tam );dispLCD4vias.c: 163: {;dispL
                                 CD4vias.c: 164:     int div;;dispLCD4vias.c: 165:     unsigned char size;;dispLCD4vias.c
                                 : 166:     char sinal;;dispLCD4vias.c: 168:     sinal = num < 0;
  2296                           	btfsc	(dispLCD_num@num+1),7
  2297  01A6  1BA6               	goto	u961
  2298  01A7  29A9               	goto	u960
  2299  01A8  29AB               u961:
  2300  01A9                     	movlw	1
  2301  01A9  3001               	goto	u970
  2302  01AA  29AC               u960:
  2303  01AB                     	movlw	0
  2304  01AB  3000               u970:
  2305  01AC                     	movwf	(??_dispLCD_num+0)+0
  2306  01AC  00A8               	movf	(??_dispLCD_num+0)+0,w
  2307  01AD  0828               	movwf	(dispLCD_num@sinal)
  2308  01AE  00AD               	line	169
  2309                           	
  2310                           l1442:	
  2311  01AF                     ;dispLCD4vias.c: 169:     if( sinal )
  2312                           	movf	((dispLCD_num@sinal)),w
  2313  01AF  082D               	btfsc	status,2
  2314  01B0  1903               	goto	u981
  2315  01B1  29B3               	goto	u980
  2316  01B2  29B4               u981:
  2317  01B3                     	goto	l1446
  2318  01B3  29BA               u980:
  2319  01B4                     	line	170
  2320                           	
  2321                           l1444:	
  2322  01B4                     ;dispLCD4vias.c: 170:         num = (~num) + 1;
  2323                           	comf	(dispLCD_num@num),f
  2324  01B4  09A5               	comf	(dispLCD_num@num+1),f
  2325  01B5  09A6               	incf	(dispLCD_num@num),f
  2326  01B6  0AA5               	skipnz
  2327  01B7  1903               	incf	(dispLCD_num@num+1),f
  2328  01B8  0AA6               	goto	l1446
  2329  01B9  29BA               	
  2330                           l74:	
  2331  01BA                     	line	172
  2332                           	
  2333                           l1446:	
  2334  01BA                     ;dispLCD4vias.c: 172:     dispLCD_lincol(lin, col);
  2335                           	movf	(dispLCD_num@col),w
  2336  01BA  0824               	movwf	(??_dispLCD_num+0)+0
  2337  01BB  00A8               	movf	(??_dispLCD_num+0)+0,w
  2338  01BC  0828               	movwf	(dispLCD_lincol@col)
  2339  01BD  00F5               	movf	(dispLCD_num@lin),w
  2340  01BE  082B               	fcall	_dispLCD_lincol
  2341  01BF  120A  118A  25D2  120A  118A  	line	174
  2342                           	
  2343                           l1448:	
  2344  01C4                     ;dispLCD4vias.c: 174:     div=10000;
  2345                           	movlw	010h
  2346  01C4  3010               	bcf	status, 5	;RP0=0, select bank0
  2347  01C5  1283               	bcf	status, 6	;RP1=0, select bank0
  2348  01C6  1303               	movwf	(dispLCD_num@div)
  2349  01C7  00AE               	movlw	027h
  2350  01C8  3027               	movwf	((dispLCD_num@div))+1
  2351  01C9  00AF               	line	175
  2352                           	
  2353                           l1450:	
  2354  01CA                     ;dispLCD4vias.c: 175:     size = 5;
  2355                           	movlw	low(05h)
  2356  01CA  3005               	movwf	(??_dispLCD_num+0)+0
  2357  01CB  00A8               	movf	(??_dispLCD_num+0)+0,w
  2358  01CC  0828               	movwf	(dispLCD_num@size)
  2359  01CD  00AC               	line	176
  2360                           ;dispLCD4vias.c: 176:     while( div >= 1 )
  2361                           	goto	l1458
  2362  01CE  29FE               	
  2363                           l76:	
  2364  01CF                     	line	178
  2365                           	
  2366                           l1452:	
  2367  01CF                     ;dispLCD4vias.c: 177:     {;dispLCD4vias.c: 178:         if( num/div == 0 )
  2368                           	bcf	status, 5	;RP0=0, select bank0
  2369  01CF  1283               	bcf	status, 6	;RP1=0, select bank0
  2370  01D0  1303               	movf	(dispLCD_num@div+1),w
  2371  01D1  082F               	movwf	(___awdiv@divisor+1)
  2372  01D2  00F3               	movf	(dispLCD_num@div),w
  2373  01D3  082E               	movwf	(___awdiv@divisor)
  2374  01D4  00F2               	movf	(dispLCD_num@num+1),w
  2375  01D5  0826               	movwf	(___awdiv@dividend+1)
  2376  01D6  00F5               	movf	(dispLCD_num@num),w
  2377  01D7  0825               	movwf	(___awdiv@dividend)
  2378  01D8  00F4               	fcall	___awdiv
  2379  01D9  120A  118A  2431  120A  118A  	movf	((0+(?___awdiv))),w
  2380  01DE  0872               iorwf	((1+(?___awdiv))),w
  2381  01DF  0473               	btfss	status,2
  2382  01E0  1D03               	goto	u991
  2383  01E1  29E3               	goto	u990
  2384  01E2  29E4               u991:
  2385  01E3                     	goto	l1464
  2386  01E3  2A18               u990:
  2387  01E4                     	line	179
  2388                           	
  2389                           l1454:	
  2390  01E4                     ;dispLCD4vias.c: 179:             --size;
  2391                           	movlw	01h
  2392  01E4  3001               	bcf	status, 5	;RP0=0, select bank0
  2393  01E5  1283               	bcf	status, 6	;RP1=0, select bank0
  2394  01E6  1303               	subwf	(dispLCD_num@size),f
  2395  01E7  02AC               	goto	l1456
  2396  01E8  29EA               	line	180
  2397                           ;dispLCD4vias.c: 180:         else
  2398                           	
  2399                           l77:	
  2400  01E9                     	line	181
  2401                           ;dispLCD4vias.c: 181:             break;
  2402                           	goto	l1464
  2403  01E9  2A18               	
  2404                           l78:	
  2405  01EA                     	line	182
  2406                           	
  2407                           l1456:	
  2408  01EA                     ;dispLCD4vias.c: 182:         div/=10;
  2409                           	movlw	0Ah
  2410  01EA  300A               	movwf	(___awdiv@divisor)
  2411  01EB  00F2               	movlw	0
  2412  01EC  3000               	movwf	((___awdiv@divisor))+1
  2413  01ED  00F3               	movf	(dispLCD_num@div+1),w
  2414  01EE  082F               	movwf	(___awdiv@dividend+1)
  2415  01EF  00F5               	movf	(dispLCD_num@div),w
  2416  01F0  082E               	movwf	(___awdiv@dividend)
  2417  01F1  00F4               	fcall	___awdiv
  2418  01F2  120A  118A  2431  120A  118A  	movf	(1+(?___awdiv)),w
  2419  01F7  0873               	bcf	status, 5	;RP0=0, select bank0
  2420  01F8  1283               	bcf	status, 6	;RP1=0, select bank0
  2421  01F9  1303               	movwf	(dispLCD_num@div+1)
  2422  01FA  00AF               	movf	(0+(?___awdiv)),w
  2423  01FB  0872               	movwf	(dispLCD_num@div)
  2424  01FC  00AE               	goto	l1458
  2425  01FD  29FE               	line	183
  2426                           ;dispLCD4vias.c: 183:     }
  2427                           	
  2428                           l75:	
  2429  01FE                     	line	176
  2430                           	
  2431                           l1458:	
  2432  01FE                     ;dispLCD4vias.c: 176:     while( div >= 1 )
  2433                           	movf	(dispLCD_num@div+1),w
  2434  01FE  082F               	xorlw	80h
  2435  01FF  3A80               	movwf	btemp+1
  2436  0200  00FF               	movlw	(0)^80h
  2437  0201  3080               	subwf	btemp+1,w
  2438  0202  027F               	skipz
  2439  0203  1D03               	goto	u1005
  2440  0204  2A07               	movlw	01h
  2441  0205  3001               	subwf	(dispLCD_num@div),w
  2442  0206  022E               u1005:
  2443  0207                     
  2444                           	skipnc
  2445  0207  1803               	goto	u1001
  2446  0208  2A0A               	goto	u1000
  2447  0209  2A0B               u1001:
  2448  020A                     	goto	l1452
  2449  020A  29CF               u1000:
  2450  020B                     	goto	l1464
  2451  020B  2A18               	
  2452                           l79:	
  2453  020C                     	line	185
  2454                           ;dispLCD4vias.c: 185:     while( tam > (size+sinal) && tam > 1 )
  2455                           	goto	l1464
  2456  020C  2A18               	
  2457                           l81:	
  2458  020D                     	line	187
  2459                           	
  2460                           l1460:	
  2461  020D                     ;dispLCD4vias.c: 186:     {;dispLCD4vias.c: 187:         dispLCD_dataReg(' ');
  2462                           	movlw	low(020h)
  2463  020D  3020               	fcall	_dispLCD_dataReg
  2464  020E  120A  118A  253E  120A  118A  	line	188
  2465                           	
  2466                           l1462:	
  2467  0213                     ;dispLCD4vias.c: 188:         --tam;
  2468                           	movlw	01h
  2469  0213  3001               	bcf	status, 5	;RP0=0, select bank0
  2470  0214  1283               	bcf	status, 6	;RP1=0, select bank0
  2471  0215  1303               	subwf	(dispLCD_num@tam),f
  2472  0216  02A7               	goto	l1464
  2473  0217  2A18               	line	189
  2474                           ;dispLCD4vias.c: 189:     }
  2475                           	
  2476                           l80:	
  2477  0218                     	line	185
  2478                           	
  2479                           l1464:	
  2480  0218                     ;dispLCD4vias.c: 185:     while( tam > (size+sinal) && tam > 1 )
  2481                           	bcf	status, 5	;RP0=0, select bank0
  2482  0218  1283               	bcf	status, 6	;RP1=0, select bank0
  2483  0219  1303               	movf	(dispLCD_num@size),w
  2484  021A  082C               	addwf	(dispLCD_num@sinal),w
  2485  021B  072D               	movwf	(??_dispLCD_num+0)+0
  2486  021C  00A8               	clrf	(??_dispLCD_num+0)+0+1
  2487  021D  01A9               	rlf	1+(??_dispLCD_num+0)+0,f
  2488  021E  0DA9               	
  2489                           	movf	1+(??_dispLCD_num+0)+0,w
  2490  021F  0829               	xorlw	80h
  2491  0220  3A80               	movwf	(??_dispLCD_num+2)+0
  2492  0221  00AA               	movlw	80h
  2493  0222  3080               	subwf	(??_dispLCD_num+2)+0,w
  2494  0223  022A               	skipz
  2495  0224  1D03               	goto	u1015
  2496  0225  2A28               	movf	(dispLCD_num@tam),w
  2497  0226  0827               	subwf	0+(??_dispLCD_num+0)+0,w
  2498  0227  0228               u1015:
  2499  0228                     
  2500                           	skipnc
  2501  0228  1803               	goto	u1011
  2502  0229  2A2B               	goto	u1010
  2503  022A  2A2C               u1011:
  2504  022B                     	goto	l1468
  2505  022B  2A36               u1010:
  2506  022C                     	
  2507                           l1466:	
  2508  022C                     	movlw	low(02h)
  2509  022C  3002               	bcf	status, 5	;RP0=0, select bank0
  2510  022D  1283               	bcf	status, 6	;RP1=0, select bank0
  2511  022E  1303               	subwf	(dispLCD_num@tam),w
  2512  022F  0227               	skipnc
  2513  0230  1803               	goto	u1021
  2514  0231  2A33               	goto	u1020
  2515  0232  2A34               u1021:
  2516  0233                     	goto	l1460
  2517  0233  2A0D               u1020:
  2518  0234                     	goto	l1468
  2519  0234  2A36               	
  2520                           l83:	
  2521  0235                     	goto	l1468
  2522  0235  2A36               	
  2523                           l84:	
  2524  0236                     	line	191
  2525                           	
  2526                           l1468:	
  2527  0236                     ;dispLCD4vias.c: 191:     if( sinal )
  2528                           	bcf	status, 5	;RP0=0, select bank0
  2529  0236  1283               	bcf	status, 6	;RP1=0, select bank0
  2530  0237  1303               	movf	((dispLCD_num@sinal)),w
  2531  0238  082D               	btfsc	status,2
  2532  0239  1903               	goto	u1031
  2533  023A  2A3C               	goto	u1030
  2534  023B  2A3D               u1031:
  2535  023C                     	goto	l86
  2536  023C  2A44               u1030:
  2537  023D                     	line	192
  2538                           	
  2539                           l1470:	
  2540  023D                     ;dispLCD4vias.c: 192:         dispLCD_dataReg('-');
  2541                           	movlw	low(02Dh)
  2542  023D  302D               	fcall	_dispLCD_dataReg
  2543  023E  120A  118A  253E  120A  118A  	goto	l86
  2544  0243  2A44               	
  2545                           l85:	
  2546  0244                     	line	194
  2547                           ;dispLCD4vias.c: 194:     do
  2548                           	
  2549                           l86:	
  2550  0244                     	line	196
  2551                           ;dispLCD4vias.c: 195:     {;dispLCD4vias.c: 196:         dispLCD_dataReg( (num / div) + 
                                 '0' );
  2552                           	bcf	status, 5	;RP0=0, select bank0
  2553  0244  1283               	bcf	status, 6	;RP1=0, select bank0
  2554  0245  1303               	movf	(dispLCD_num@div+1),w
  2555  0246  082F               	movwf	(___awdiv@divisor+1)
  2556  0247  00F3               	movf	(dispLCD_num@div),w
  2557  0248  082E               	movwf	(___awdiv@divisor)
  2558  0249  00F2               	movf	(dispLCD_num@num+1),w
  2559  024A  0826               	movwf	(___awdiv@dividend+1)
  2560  024B  00F5               	movf	(dispLCD_num@num),w
  2561  024C  0825               	movwf	(___awdiv@dividend)
  2562  024D  00F4               	fcall	___awdiv
  2563  024E  120A  118A  2431  120A  118A  	movf	(0+(?___awdiv)),w
  2564  0253  0872               	addlw	030h
  2565  0254  3E30               	fcall	_dispLCD_dataReg
  2566  0255  120A  118A  253E  120A  118A  	line	197
  2567                           ;dispLCD4vias.c: 197:         num = num % div;
  2568                           	bcf	status, 5	;RP0=0, select bank0
  2569  025A  1283               	bcf	status, 6	;RP1=0, select bank0
  2570  025B  1303               	movf	(dispLCD_num@div+1),w
  2571  025C  082F               	movwf	(___awmod@divisor+1)
  2572  025D  00F3               	movf	(dispLCD_num@div),w
  2573  025E  082E               	movwf	(___awmod@divisor)
  2574  025F  00F2               	movf	(dispLCD_num@num+1),w
  2575  0260  0826               	movwf	(___awmod@dividend+1)
  2576  0261  00F5               	movf	(dispLCD_num@num),w
  2577  0262  0825               	movwf	(___awmod@dividend)
  2578  0263  00F4               	fcall	___awmod
  2579  0264  120A  118A  24A4  120A  118A  	movf	(1+(?___awmod)),w
  2580  0269  0873               	bcf	status, 5	;RP0=0, select bank0
  2581  026A  1283               	bcf	status, 6	;RP1=0, select bank0
  2582  026B  1303               	movwf	(dispLCD_num@num+1)
  2583  026C  00A6               	movf	(0+(?___awmod)),w
  2584  026D  0872               	movwf	(dispLCD_num@num)
  2585  026E  00A5               	line	198
  2586                           ;dispLCD4vias.c: 198:         div/=10;
  2587                           	movlw	0Ah
  2588  026F  300A               	movwf	(___awdiv@divisor)
  2589  0270  00F2               	movlw	0
  2590  0271  3000               	movwf	((___awdiv@divisor))+1
  2591  0272  00F3               	movf	(dispLCD_num@div+1),w
  2592  0273  082F               	movwf	(___awdiv@dividend+1)
  2593  0274  00F5               	movf	(dispLCD_num@div),w
  2594  0275  082E               	movwf	(___awdiv@dividend)
  2595  0276  00F4               	fcall	___awdiv
  2596  0277  120A  118A  2431  120A  118A  	movf	(1+(?___awdiv)),w
  2597  027C  0873               	bcf	status, 5	;RP0=0, select bank0
  2598  027D  1283               	bcf	status, 6	;RP1=0, select bank0
  2599  027E  1303               	movwf	(dispLCD_num@div+1)
  2600  027F  00AF               	movf	(0+(?___awdiv)),w
  2601  0280  0872               	movwf	(dispLCD_num@div)
  2602  0281  00AE               	line	199
  2603                           	
  2604                           l1472:	
  2605  0282                     ;dispLCD4vias.c: 199:     }
  2606                           	movf	(dispLCD_num@div+1),w
  2607  0282  082F               	xorlw	80h
  2608  0283  3A80               	movwf	btemp+1
  2609  0284  00FF               	movlw	(0)^80h
  2610  0285  3080               	subwf	btemp+1,w
  2611  0286  027F               	skipz
  2612  0287  1D03               	goto	u1045
  2613  0288  2A8B               	movlw	01h
  2614  0289  3001               	subwf	(dispLCD_num@div),w
  2615  028A  022E               u1045:
  2616  028B                     
  2617                           	skipnc
  2618  028B  1803               	goto	u1041
  2619  028C  2A8E               	goto	u1040
  2620  028D  2A8F               u1041:
  2621  028E                     	goto	l86
  2622  028E  2A44               u1040:
  2623  028F                     	goto	l88
  2624  028F  2A90               	
  2625                           l87:	
  2626  0290                     	line	201
  2627                           	
  2628                           l88:	
  2629  0290                     	return
  2630  0290  0008               	opt stack 0
  2631                           GLOBAL	__end_of_dispLCD_num
  2632                           	__end_of_dispLCD_num:
  2633  0291                     	signat	_dispLCD_num,16505
  2634                           	global	___awmod
  2635                           
  2636 ;; *************** function ___awmod *****************
  2637 ;; Defined at:
  2638 ;;		line 5 in file "C:\Program Files (x86)\Microchip\xc8\v2.00\pic\sources\c90\common\awmod.c"
  2639 ;; Parameters:    Size  Location     Type
  2640 ;;  divisor         2    2[COMMON] int 
  2641 ;;  dividend        2    4[COMMON] int 
  2642 ;; Auto vars:     Size  Location     Type
  2643 ;;  sign            1    8[COMMON] unsigned char 
  2644 ;;  counter         1    7[COMMON] unsigned char 
  2645 ;; Return value:  Size  Location     Type
  2646 ;;                  2    2[COMMON] int 
  2647 ;; Registers used:
  2648 ;;		wreg, status,2, status,0
  2649 ;; Tracked objects:
  2650 ;;		On entry : 0/0
  2651 ;;		On exit  : 0/0
  2652 ;;		Unchanged: 0/0
  2653 ;; Data sizes:     COMMON   BANK0   BANK1   BANK3   BANK2
  2654 ;;      Params:         4       0       0       0       0
  2655 ;;      Locals:         2       0       0       0       0
  2656 ;;      Temps:          1       0       0       0       0
  2657 ;;      Totals:         7       0       0       0       0
  2658 ;;Total ram usage:        7 bytes
  2659 ;; Hardware stack levels used:    1
  2660 ;; Hardware stack levels required when called:    1
  2661 ;; This function calls:
  2662 ;;		Nothing
  2663 ;; This function is called by:
  2664 ;;		_dispLCD_num
  2665 ;; This function uses a non-reentrant model
  2666 ;;
  2667                           psect	text3,local,class=CODE,delta=2,merge=1,group=1
  2668                           	file	"C:\Program Files (x86)\Microchip\xc8\v2.00\pic\sources\c90\common\awmod.c"
  2669                           	line	5
  2670                           global __ptext3
  2671                           __ptext3:	;psect for function ___awmod
  2672  04A4                     psect	text3
  2673                           	file	"C:\Program Files (x86)\Microchip\xc8\v2.00\pic\sources\c90\common\awmod.c"
  2674                           	line	5
  2675                           	global	__size_of___awmod
  2676                           	__size_of___awmod	equ	__end_of___awmod-___awmod
  2677  0063                     	
  2678                           ___awmod:	
  2679  04A4                     ;incstack = 0
  2680                           	opt	stack 5
  2681                           ; Regs used in ___awmod: [wreg+status,2+status,0]
  2682                           	line	12
  2683                           	
  2684                           l1144:	
  2685  04A4                     	clrf	(___awmod@sign)
  2686  04A4  01F8               	line	13
  2687                           	
  2688                           l1146:	
  2689  04A5                     	btfss	(___awmod@dividend+1),7
  2690  04A5  1FF5               	goto	u621
  2691  04A6  2CA8               	goto	u620
  2692  04A7  2CA9               u621:
  2693  04A8                     	goto	l1152
  2694  04A8  2CB1               u620:
  2695  04A9                     	line	14
  2696                           	
  2697                           l1148:	
  2698  04A9                     	comf	(___awmod@dividend),f
  2699  04A9  09F4               	comf	(___awmod@dividend+1),f
  2700  04AA  09F5               	incf	(___awmod@dividend),f
  2701  04AB  0AF4               	skipnz
  2702  04AC  1903               	incf	(___awmod@dividend+1),f
  2703  04AD  0AF5               	line	15
  2704                           	
  2705                           l1150:	
  2706  04AE                     	clrf	(___awmod@sign)
  2707  04AE  01F8               	incf	(___awmod@sign),f
  2708  04AF  0AF8               	goto	l1152
  2709  04B0  2CB1               	line	16
  2710                           	
  2711                           l361:	
  2712  04B1                     	line	17
  2713                           	
  2714                           l1152:	
  2715  04B1                     	btfss	(___awmod@divisor+1),7
  2716  04B1  1FF3               	goto	u631
  2717  04B2  2CB4               	goto	u630
  2718  04B3  2CB5               u631:
  2719  04B4                     	goto	l1156
  2720  04B4  2CBB               u630:
  2721  04B5                     	line	18
  2722                           	
  2723                           l1154:	
  2724  04B5                     	comf	(___awmod@divisor),f
  2725  04B5  09F2               	comf	(___awmod@divisor+1),f
  2726  04B6  09F3               	incf	(___awmod@divisor),f
  2727  04B7  0AF2               	skipnz
  2728  04B8  1903               	incf	(___awmod@divisor+1),f
  2729  04B9  0AF3               	goto	l1156
  2730  04BA  2CBB               	
  2731                           l362:	
  2732  04BB                     	line	19
  2733                           	
  2734                           l1156:	
  2735  04BB                     	movf	((___awmod@divisor)),w
  2736  04BB  0872               iorwf	((___awmod@divisor+1)),w
  2737  04BC  0473               	btfsc	status,2
  2738  04BD  1903               	goto	u641
  2739  04BE  2CC0               	goto	u640
  2740  04BF  2CC1               u641:
  2741  04C0                     	goto	l1174
  2742  04C0  2CF6               u640:
  2743  04C1                     	line	20
  2744                           	
  2745                           l1158:	
  2746  04C1                     	clrf	(___awmod@counter)
  2747  04C1  01F7               	incf	(___awmod@counter),f
  2748  04C2  0AF7               	line	21
  2749                           	goto	l1164
  2750  04C3  2CD0               	
  2751                           l365:	
  2752  04C4                     	line	22
  2753                           	
  2754                           l1160:	
  2755  04C4                     	movlw	01h
  2756  04C4  3001               	
  2757                           u655:
  2758  04C5                     	clrc
  2759  04C5  1003               	rlf	(___awmod@divisor),f
  2760  04C6  0DF2               	rlf	(___awmod@divisor+1),f
  2761  04C7  0DF3               	addlw	-1
  2762  04C8  3EFF               	skipz
  2763  04C9  1D03               	goto	u655
  2764  04CA  2CC5               	line	23
  2765                           	
  2766                           l1162:	
  2767  04CB                     	movlw	low(01h)
  2768  04CB  3001               	movwf	(??___awmod+0)+0
  2769  04CC  00F6               	movf	(??___awmod+0)+0,w
  2770  04CD  0876               	addwf	(___awmod@counter),f
  2771  04CE  07F7               	goto	l1164
  2772  04CF  2CD0               	line	24
  2773                           	
  2774                           l364:	
  2775  04D0                     	line	21
  2776                           	
  2777                           l1164:	
  2778  04D0                     	btfss	(___awmod@divisor+1),(15)&7
  2779  04D0  1FF3               	goto	u661
  2780  04D1  2CD3               	goto	u660
  2781  04D2  2CD4               u661:
  2782  04D3                     	goto	l1160
  2783  04D3  2CC4               u660:
  2784  04D4                     	goto	l1166
  2785  04D4  2CD6               	
  2786                           l366:	
  2787  04D5                     	goto	l1166
  2788  04D5  2CD6               	line	25
  2789                           	
  2790                           l367:	
  2791  04D6                     	line	26
  2792                           	
  2793                           l1166:	
  2794  04D6                     	movf	(___awmod@divisor+1),w
  2795  04D6  0873               	subwf	(___awmod@dividend+1),w
  2796  04D7  0275               	skipz
  2797  04D8  1D03               	goto	u675
  2798  04D9  2CDC               	movf	(___awmod@divisor),w
  2799  04DA  0872               	subwf	(___awmod@dividend),w
  2800  04DB  0274               u675:
  2801  04DC                     	skipc
  2802  04DC  1C03               	goto	u671
  2803  04DD  2CDF               	goto	u670
  2804  04DE  2CE0               u671:
  2805  04DF                     	goto	l1170
  2806  04DF  2CE7               u670:
  2807  04E0                     	line	27
  2808                           	
  2809                           l1168:	
  2810  04E0                     	movf	(___awmod@divisor),w
  2811  04E0  0872               	subwf	(___awmod@dividend),f
  2812  04E1  02F4               	movf	(___awmod@divisor+1),w
  2813  04E2  0873               	skipc
  2814  04E3  1C03               	decf	(___awmod@dividend+1),f
  2815  04E4  03F5               	subwf	(___awmod@dividend+1),f
  2816  04E5  02F5               	goto	l1170
  2817  04E6  2CE7               	
  2818                           l368:	
  2819  04E7                     	line	28
  2820                           	
  2821                           l1170:	
  2822  04E7                     	movlw	01h
  2823  04E7  3001               	
  2824                           u685:
  2825  04E8                     	clrc
  2826  04E8  1003               	rrf	(___awmod@divisor+1),f
  2827  04E9  0CF3               	rrf	(___awmod@divisor),f
  2828  04EA  0CF2               	addlw	-1
  2829  04EB  3EFF               	skipz
  2830  04EC  1D03               	goto	u685
  2831  04ED  2CE8               	line	29
  2832                           	
  2833                           l1172:	
  2834  04EE                     	movlw	01h
  2835  04EE  3001               	subwf	(___awmod@counter),f
  2836  04EF  02F7               	btfss	status,2
  2837  04F0  1D03               	goto	u691
  2838  04F1  2CF3               	goto	u690
  2839  04F2  2CF4               u691:
  2840  04F3                     	goto	l1166
  2841  04F3  2CD6               u690:
  2842  04F4                     	goto	l1174
  2843  04F4  2CF6               	
  2844                           l369:	
  2845  04F5                     	goto	l1174
  2846  04F5  2CF6               	line	30
  2847                           	
  2848                           l363:	
  2849  04F6                     	line	31
  2850                           	
  2851                           l1174:	
  2852  04F6                     	movf	((___awmod@sign)),w
  2853  04F6  0878               	btfsc	status,2
  2854  04F7  1903               	goto	u701
  2855  04F8  2CFA               	goto	u700
  2856  04F9  2CFB               u701:
  2857  04FA                     	goto	l1178
  2858  04FA  2D01               u700:
  2859  04FB                     	line	32
  2860                           	
  2861                           l1176:	
  2862  04FB                     	comf	(___awmod@dividend),f
  2863  04FB  09F4               	comf	(___awmod@dividend+1),f
  2864  04FC  09F5               	incf	(___awmod@dividend),f
  2865  04FD  0AF4               	skipnz
  2866  04FE  1903               	incf	(___awmod@dividend+1),f
  2867  04FF  0AF5               	goto	l1178
  2868  0500  2D01               	
  2869                           l370:	
  2870  0501                     	line	33
  2871                           	
  2872                           l1178:	
  2873  0501                     	movf	(___awmod@dividend+1),w
  2874  0501  0875               	movwf	(?___awmod+1)
  2875  0502  00F3               	movf	(___awmod@dividend),w
  2876  0503  0874               	movwf	(?___awmod)
  2877  0504  00F2               	goto	l371
  2878  0505  2D06               	
  2879                           l1180:	
  2880  0506                     	line	34
  2881                           	
  2882                           l371:	
  2883  0506                     	return
  2884  0506  0008               	opt stack 0
  2885                           GLOBAL	__end_of___awmod
  2886                           	__end_of___awmod:
  2887  0507                     	signat	___awmod,8314
  2888                           	global	___awdiv
  2889                           
  2890 ;; *************** function ___awdiv *****************
  2891 ;; Defined at:
  2892 ;;		line 5 in file "C:\Program Files (x86)\Microchip\xc8\v2.00\pic\sources\c90\common\awdiv.c"
  2893 ;; Parameters:    Size  Location     Type
  2894 ;;  divisor         2    2[COMMON] int 
  2895 ;;  dividend        2    4[COMMON] int 
  2896 ;; Auto vars:     Size  Location     Type
  2897 ;;  quotient        2    2[BANK0 ] int 
  2898 ;;  sign            1    1[BANK0 ] unsigned char 
  2899 ;;  counter         1    0[BANK0 ] unsigned char 
  2900 ;; Return value:  Size  Location     Type
  2901 ;;                  2    2[COMMON] int 
  2902 ;; Registers used:
  2903 ;;		wreg, status,2, status,0
  2904 ;; Tracked objects:
  2905 ;;		On entry : 0/0
  2906 ;;		On exit  : 0/0
  2907 ;;		Unchanged: 0/0
  2908 ;; Data sizes:     COMMON   BANK0   BANK1   BANK3   BANK2
  2909 ;;      Params:         4       0       0       0       0
  2910 ;;      Locals:         0       4       0       0       0
  2911 ;;      Temps:          1       0       0       0       0
  2912 ;;      Totals:         5       4       0       0       0
  2913 ;;Total ram usage:        9 bytes
  2914 ;; Hardware stack levels used:    1
  2915 ;; Hardware stack levels required when called:    1
  2916 ;; This function calls:
  2917 ;;		Nothing
  2918 ;; This function is called by:
  2919 ;;		_dispLCD_num
  2920 ;; This function uses a non-reentrant model
  2921 ;;
  2922                           psect	text4,local,class=CODE,delta=2,merge=1,group=1
  2923                           	file	"C:\Program Files (x86)\Microchip\xc8\v2.00\pic\sources\c90\common\awdiv.c"
  2924                           	line	5
  2925                           global __ptext4
  2926                           __ptext4:	;psect for function ___awdiv
  2927  0431                     psect	text4
  2928                           	file	"C:\Program Files (x86)\Microchip\xc8\v2.00\pic\sources\c90\common\awdiv.c"
  2929                           	line	5
  2930                           	global	__size_of___awdiv
  2931                           	__size_of___awdiv	equ	__end_of___awdiv-___awdiv
  2932  0073                     	
  2933                           ___awdiv:	
  2934  0431                     ;incstack = 0
  2935                           	opt	stack 5
  2936                           ; Regs used in ___awdiv: [wreg+status,2+status,0]
  2937                           	line	13
  2938                           	
  2939                           l1384:	
  2940  0431                     	bcf	status, 5	;RP0=0, select bank0
  2941  0431  1283               	bcf	status, 6	;RP1=0, select bank0
  2942  0432  1303               	clrf	(___awdiv@sign)
  2943  0433  01A1               	line	14
  2944                           	
  2945                           l1386:	
  2946  0434                     	btfss	(___awdiv@divisor+1),7
  2947  0434  1FF3               	goto	u851
  2948  0435  2C37               	goto	u850
  2949  0436  2C38               u851:
  2950  0437                     	goto	l1392
  2951  0437  2C40               u850:
  2952  0438                     	line	15
  2953                           	
  2954                           l1388:	
  2955  0438                     	comf	(___awdiv@divisor),f
  2956  0438  09F2               	comf	(___awdiv@divisor+1),f
  2957  0439  09F3               	incf	(___awdiv@divisor),f
  2958  043A  0AF2               	skipnz
  2959  043B  1903               	incf	(___awdiv@divisor+1),f
  2960  043C  0AF3               	line	16
  2961                           	
  2962                           l1390:	
  2963  043D                     	clrf	(___awdiv@sign)
  2964  043D  01A1               	incf	(___awdiv@sign),f
  2965  043E  0AA1               	goto	l1392
  2966  043F  2C40               	line	17
  2967                           	
  2968                           l348:	
  2969  0440                     	line	18
  2970                           	
  2971                           l1392:	
  2972  0440                     	btfss	(___awdiv@dividend+1),7
  2973  0440  1FF5               	goto	u861
  2974  0441  2C43               	goto	u860
  2975  0442  2C44               u861:
  2976  0443                     	goto	l1398
  2977  0443  2C4E               u860:
  2978  0444                     	line	19
  2979                           	
  2980                           l1394:	
  2981  0444                     	comf	(___awdiv@dividend),f
  2982  0444  09F4               	comf	(___awdiv@dividend+1),f
  2983  0445  09F5               	incf	(___awdiv@dividend),f
  2984  0446  0AF4               	skipnz
  2985  0447  1903               	incf	(___awdiv@dividend+1),f
  2986  0448  0AF5               	line	20
  2987                           	
  2988                           l1396:	
  2989  0449                     	movlw	low(01h)
  2990  0449  3001               	movwf	(??___awdiv+0)+0
  2991  044A  00F6               	movf	(??___awdiv+0)+0,w
  2992  044B  0876               	xorwf	(___awdiv@sign),f
  2993  044C  06A1               	goto	l1398
  2994  044D  2C4E               	line	21
  2995                           	
  2996                           l349:	
  2997  044E                     	line	22
  2998                           	
  2999                           l1398:	
  3000  044E                     	clrf	(___awdiv@quotient)
  3001  044E  01A2               	clrf	(___awdiv@quotient+1)
  3002  044F  01A3               	line	23
  3003                           	
  3004                           l1400:	
  3005  0450                     	movf	((___awdiv@divisor)),w
  3006  0450  0872               iorwf	((___awdiv@divisor+1)),w
  3007  0451  0473               	btfsc	status,2
  3008  0452  1903               	goto	u871
  3009  0453  2C55               	goto	u870
  3010  0454  2C56               u871:
  3011  0455                     	goto	l1420
  3012  0455  2C93               u870:
  3013  0456                     	line	24
  3014                           	
  3015                           l1402:	
  3016  0456                     	clrf	(___awdiv@counter)
  3017  0456  01A0               	incf	(___awdiv@counter),f
  3018  0457  0AA0               	line	25
  3019                           	goto	l1408
  3020  0458  2C65               	
  3021                           l352:	
  3022  0459                     	line	26
  3023                           	
  3024                           l1404:	
  3025  0459                     	movlw	01h
  3026  0459  3001               	
  3027                           u885:
  3028  045A                     	clrc
  3029  045A  1003               	rlf	(___awdiv@divisor),f
  3030  045B  0DF2               	rlf	(___awdiv@divisor+1),f
  3031  045C  0DF3               	addlw	-1
  3032  045D  3EFF               	skipz
  3033  045E  1D03               	goto	u885
  3034  045F  2C5A               	line	27
  3035                           	
  3036                           l1406:	
  3037  0460                     	movlw	low(01h)
  3038  0460  3001               	movwf	(??___awdiv+0)+0
  3039  0461  00F6               	movf	(??___awdiv+0)+0,w
  3040  0462  0876               	addwf	(___awdiv@counter),f
  3041  0463  07A0               	goto	l1408
  3042  0464  2C65               	line	28
  3043                           	
  3044                           l351:	
  3045  0465                     	line	25
  3046                           	
  3047                           l1408:	
  3048  0465                     	btfss	(___awdiv@divisor+1),(15)&7
  3049  0465  1FF3               	goto	u891
  3050  0466  2C68               	goto	u890
  3051  0467  2C69               u891:
  3052  0468                     	goto	l1404
  3053  0468  2C59               u890:
  3054  0469                     	goto	l1410
  3055  0469  2C6B               	
  3056                           l353:	
  3057  046A                     	goto	l1410
  3058  046A  2C6B               	line	29
  3059                           	
  3060                           l354:	
  3061  046B                     	line	30
  3062                           	
  3063                           l1410:	
  3064  046B                     	movlw	01h
  3065  046B  3001               	
  3066                           u905:
  3067  046C                     	clrc
  3068  046C  1003               	rlf	(___awdiv@quotient),f
  3069  046D  0DA2               	rlf	(___awdiv@quotient+1),f
  3070  046E  0DA3               	addlw	-1
  3071  046F  3EFF               	skipz
  3072  0470  1D03               	goto	u905
  3073  0471  2C6C               	line	31
  3074                           	movf	(___awdiv@divisor+1),w
  3075  0472  0873               	subwf	(___awdiv@dividend+1),w
  3076  0473  0275               	skipz
  3077  0474  1D03               	goto	u915
  3078  0475  2C78               	movf	(___awdiv@divisor),w
  3079  0476  0872               	subwf	(___awdiv@dividend),w
  3080  0477  0274               u915:
  3081  0478                     	skipc
  3082  0478  1C03               	goto	u911
  3083  0479  2C7B               	goto	u910
  3084  047A  2C7C               u911:
  3085  047B                     	goto	l1416
  3086  047B  2C84               u910:
  3087  047C                     	line	32
  3088                           	
  3089                           l1412:	
  3090  047C                     	movf	(___awdiv@divisor),w
  3091  047C  0872               	subwf	(___awdiv@dividend),f
  3092  047D  02F4               	movf	(___awdiv@divisor+1),w
  3093  047E  0873               	skipc
  3094  047F  1C03               	decf	(___awdiv@dividend+1),f
  3095  0480  03F5               	subwf	(___awdiv@dividend+1),f
  3096  0481  02F5               	line	33
  3097                           	
  3098                           l1414:	
  3099  0482                     	bsf	(___awdiv@quotient)+(0/8),(0)&7
  3100  0482  1422               	goto	l1416
  3101  0483  2C84               	line	34
  3102                           	
  3103                           l355:	
  3104  0484                     	line	35
  3105                           	
  3106                           l1416:	
  3107  0484                     	movlw	01h
  3108  0484  3001               	
  3109                           u925:
  3110  0485                     	clrc
  3111  0485  1003               	rrf	(___awdiv@divisor+1),f
  3112  0486  0CF3               	rrf	(___awdiv@divisor),f
  3113  0487  0CF2               	addlw	-1
  3114  0488  3EFF               	skipz
  3115  0489  1D03               	goto	u925
  3116  048A  2C85               	line	36
  3117                           	
  3118                           l1418:	
  3119  048B                     	movlw	01h
  3120  048B  3001               	subwf	(___awdiv@counter),f
  3121  048C  02A0               	btfss	status,2
  3122  048D  1D03               	goto	u931
  3123  048E  2C90               	goto	u930
  3124  048F  2C91               u931:
  3125  0490                     	goto	l1410
  3126  0490  2C6B               u930:
  3127  0491                     	goto	l1420
  3128  0491  2C93               	
  3129                           l356:	
  3130  0492                     	goto	l1420
  3131  0492  2C93               	line	37
  3132                           	
  3133                           l350:	
  3134  0493                     	line	38
  3135                           	
  3136                           l1420:	
  3137  0493                     	movf	((___awdiv@sign)),w
  3138  0493  0821               	btfsc	status,2
  3139  0494  1903               	goto	u941
  3140  0495  2C97               	goto	u940
  3141  0496  2C98               u941:
  3142  0497                     	goto	l1424
  3143  0497  2C9E               u940:
  3144  0498                     	line	39
  3145                           	
  3146                           l1422:	
  3147  0498                     	comf	(___awdiv@quotient),f
  3148  0498  09A2               	comf	(___awdiv@quotient+1),f
  3149  0499  09A3               	incf	(___awdiv@quotient),f
  3150  049A  0AA2               	skipnz
  3151  049B  1903               	incf	(___awdiv@quotient+1),f
  3152  049C  0AA3               	goto	l1424
  3153  049D  2C9E               	
  3154                           l357:	
  3155  049E                     	line	40
  3156                           	
  3157                           l1424:	
  3158  049E                     	movf	(___awdiv@quotient+1),w
  3159  049E  0823               	movwf	(?___awdiv+1)
  3160  049F  00F3               	movf	(___awdiv@quotient),w
  3161  04A0  0822               	movwf	(?___awdiv)
  3162  04A1  00F2               	goto	l358
  3163  04A2  2CA3               	
  3164                           l1426:	
  3165  04A3                     	line	41
  3166                           	
  3167                           l358:	
  3168  04A3                     	return
  3169  04A3  0008               	opt stack 0
  3170                           GLOBAL	__end_of___awdiv
  3171                           	__end_of___awdiv:
  3172  04A4                     	signat	___awdiv,8314
  3173                           	global	_dispLCD_init
  3174                           
  3175 ;; *************** function _dispLCD_init *****************
  3176 ;; Defined at:
  3177 ;;		line 129 in file "dispLCD4vias.c"
  3178 ;; Parameters:    Size  Location     Type
  3179 ;;		None
  3180 ;; Auto vars:     Size  Location     Type
  3181 ;;		None
  3182 ;; Return value:  Size  Location     Type
  3183 ;;                  1    wreg      void 
  3184 ;; Registers used:
  3185 ;;		wreg, status,2, status,0, pclath, cstack
  3186 ;; Tracked objects:
  3187 ;;		On entry : 0/0
  3188 ;;		On exit  : 0/0
  3189 ;;		Unchanged: 0/0
  3190 ;; Data sizes:     COMMON   BANK0   BANK1   BANK3   BANK2
  3191 ;;      Params:         0       0       0       0       0
  3192 ;;      Locals:         0       0       0       0       0
  3193 ;;      Temps:          0       0       0       0       0
  3194 ;;      Totals:         0       0       0       0       0
  3195 ;;Total ram usage:        0 bytes
  3196 ;; Hardware stack levels used:    1
  3197 ;; Hardware stack levels required when called:    2
  3198 ;; This function calls:
  3199 ;;		_dispLCD_instReg
  3200 ;; This function is called by:
  3201 ;;		_main
  3202 ;; This function uses a non-reentrant model
  3203 ;;
  3204                           psect	text5,local,class=CODE,delta=2,merge=1,group=0
  3205                           	file	"dispLCD4vias.c"
  3206                           	line	129
  3207                           global __ptext5
  3208                           __ptext5:	;psect for function _dispLCD_init
  3209  0597                     psect	text5
  3210                           	file	"dispLCD4vias.c"
  3211                           	line	129
  3212                           	global	__size_of_dispLCD_init
  3213                           	__size_of_dispLCD_init	equ	__end_of_dispLCD_init-_dispLCD_init
  3214  0024                     	
  3215                           _dispLCD_init:	
  3216  0597                     ;incstack = 0
  3217                           	opt	stack 5
  3218                           ; Regs used in _dispLCD_init: [wreg+status,2+status,0+pclath+cstack]
  3219                           	line	131
  3220                           	
  3221                           l1182:	
  3222  0597                     ;dispLCD4vias.c: 131:     TRISDbits.TRISD2 = 0;
  3223                           	bsf	status, 5	;RP0=1, select bank1
  3224  0597  1683               	bcf	status, 6	;RP1=0, select bank1
  3225  0598  1303               	bcf	(136)^080h,2	;volatile
  3226  0599  1108               	line	132
  3227                           ;dispLCD4vias.c: 132:     TRISDbits.TRISD3 = 0;
  3228                           	bcf	(136)^080h,3	;volatile
  3229  059A  1188               	line	134
  3230                           ;dispLCD4vias.c: 134:     TRISDbits.TRISD4 = 0;
  3231                           	bcf	(136)^080h,4	;volatile
  3232  059B  1208               	line	135
  3233                           ;dispLCD4vias.c: 135:     TRISDbits.TRISD5 = 0;
  3234                           	bcf	(136)^080h,5	;volatile
  3235  059C  1288               	line	136
  3236                           ;dispLCD4vias.c: 136:     TRISDbits.TRISD6 = 0;
  3237                           	bcf	(136)^080h,6	;volatile
  3238  059D  1308               	line	137
  3239                           ;dispLCD4vias.c: 137:     TRISDbits.TRISD7 = 0;
  3240                           	bcf	(136)^080h,7	;volatile
  3241  059E  1388               	line	139
  3242                           ;dispLCD4vias.c: 139:     LCDbits.EN = 1;
  3243                           	bcf	status, 5	;RP0=0, select bank0
  3244  059F  1283               	bcf	status, 6	;RP1=0, select bank0
  3245  05A0  1303               	bsf	(8),3	;volatile
  3246  05A1  1588               	line	140
  3247                           	
  3248                           l1184:	
  3249  05A2                     ;dispLCD4vias.c: 140:     dispLCD_instReg( 0x20|0x00|0x08);
  3250                           	movlw	low(028h)
  3251  05A2  3028               	fcall	_dispLCD_instReg
  3252  05A3  120A  118A  23B1  120A  118A  	line	141
  3253                           ;dispLCD4vias.c: 141:     dispLCD_instReg( 0x08|0x04|0x00|0x00 );
  3254                           	movlw	low(0Ch)
  3255  05A8  300C               	fcall	_dispLCD_instReg
  3256  05A9  120A  118A  23B1  120A  118A  	line	142
  3257                           ;dispLCD4vias.c: 142:     dispLCD_instReg( 0x01 );
  3258                           	movlw	low(01h)
  3259  05AE  3001               	fcall	_dispLCD_instReg
  3260  05AF  120A  118A  23B1  120A  118A  	line	143
  3261                           ;dispLCD4vias.c: 143:     dispLCD_instReg( 0x02 );
  3262                           	movlw	low(02h)
  3263  05B4  3002               	fcall	_dispLCD_instReg
  3264  05B5  120A  118A  23B1  120A  118A  	line	144
  3265                           	
  3266                           l65:	
  3267  05BA                     	return
  3268  05BA  0008               	opt stack 0
  3269                           GLOBAL	__end_of_dispLCD_init
  3270                           	__end_of_dispLCD_init:
  3271  05BB                     	signat	_dispLCD_init,89
  3272                           	global	_dispLCD_clr
  3273                           
  3274 ;; *************** function _dispLCD_clr *****************
  3275 ;; Defined at:
  3276 ;;		line 204 in file "dispLCD4vias.c"
  3277 ;; Parameters:    Size  Location     Type
  3278 ;;		None
  3279 ;; Auto vars:     Size  Location     Type
  3280 ;;		None
  3281 ;; Return value:  Size  Location     Type
  3282 ;;                  1    wreg      void 
  3283 ;; Registers used:
  3284 ;;		wreg, status,2, status,0, pclath, cstack
  3285 ;; Tracked objects:
  3286 ;;		On entry : 0/0
  3287 ;;		On exit  : 0/0
  3288 ;;		Unchanged: 0/0
  3289 ;; Data sizes:     COMMON   BANK0   BANK1   BANK3   BANK2
  3290 ;;      Params:         0       0       0       0       0
  3291 ;;      Locals:         0       0       0       0       0
  3292 ;;      Temps:          0       0       0       0       0
  3293 ;;      Totals:         0       0       0       0       0
  3294 ;;Total ram usage:        0 bytes
  3295 ;; Hardware stack levels used:    1
  3296 ;; Hardware stack levels required when called:    2
  3297 ;; This function calls:
  3298 ;;		_dispLCD_instReg
  3299 ;; This function is called by:
  3300 ;;		_main
  3301 ;; This function uses a non-reentrant model
  3302 ;;
  3303                           psect	text6,local,class=CODE,delta=2,merge=1,group=0
  3304                           	line	204
  3305                           global __ptext6
  3306                           __ptext6:	;psect for function _dispLCD_clr
  3307  05F7                     psect	text6
  3308                           	file	"dispLCD4vias.c"
  3309                           	line	204
  3310                           	global	__size_of_dispLCD_clr
  3311                           	__size_of_dispLCD_clr	equ	__end_of_dispLCD_clr-_dispLCD_clr
  3312  0007                     	
  3313                           _dispLCD_clr:	
  3314  05F7                     ;incstack = 0
  3315                           	opt	stack 5
  3316                           ; Regs used in _dispLCD_clr: [wreg+status,2+status,0+pclath+cstack]
  3317                           	line	206
  3318                           	
  3319                           l1218:	
  3320  05F7                     ;dispLCD4vias.c: 206:     dispLCD_instReg(0x01);
  3321                           	movlw	low(01h)
  3322  05F7  3001               	fcall	_dispLCD_instReg
  3323  05F8  120A  118A  23B1  120A  118A  	line	207
  3324                           	
  3325                           l91:	
  3326  05FD                     	return
  3327  05FD  0008               	opt stack 0
  3328                           GLOBAL	__end_of_dispLCD_clr
  3329                           	__end_of_dispLCD_clr:
  3330  05FE                     	signat	_dispLCD_clr,89
  3331                           	global	_dispLCD
  3332                           
  3333 ;; *************** function _dispLCD *****************
  3334 ;; Defined at:
  3335 ;;		line 147 in file "dispLCD4vias.c"
  3336 ;; Parameters:    Size  Location     Type
  3337 ;;  lin             1    wreg     unsigned char 
  3338 ;;  col             1    8[COMMON] unsigned char 
  3339 ;;  str             1    9[COMMON] PTR const unsigned char 
  3340 ;;		 -> STR_10(15), STR_9(17), STR_8(17), STR_7(17), 
  3341 ;;		 -> STR_6(17), STR_5(17), STR_4(17), STR_3(17), 
  3342 ;;		 -> STR_2(17), STR_1(20), 
  3343 ;; Auto vars:     Size  Location     Type
  3344 ;;  lin             1    2[BANK0 ] unsigned char 
  3345 ;;  pos             1    1[BANK0 ] unsigned char 
  3346 ;; Return value:  Size  Location     Type
  3347 ;;                  1    wreg      void 
  3348 ;; Registers used:
  3349 ;;		wreg, fsr0l, fsr0h, status,2, status,0, pclath, cstack
  3350 ;; Tracked objects:
  3351 ;;		On entry : 0/0
  3352 ;;		On exit  : 0/0
  3353 ;;		Unchanged: 0/0
  3354 ;; Data sizes:     COMMON   BANK0   BANK1   BANK3   BANK2
  3355 ;;      Params:         2       0       0       0       0
  3356 ;;      Locals:         0       2       0       0       0
  3357 ;;      Temps:          0       1       0       0       0
  3358 ;;      Totals:         2       3       0       0       0
  3359 ;;Total ram usage:        5 bytes
  3360 ;; Hardware stack levels used:    1
  3361 ;; Hardware stack levels required when called:    3
  3362 ;; This function calls:
  3363 ;;		_dispLCD_dataReg
  3364 ;;		_dispLCD_lincol
  3365 ;; This function is called by:
  3366 ;;		_main
  3367 ;; This function uses a non-reentrant model
  3368 ;;
  3369                           psect	text7,local,class=CODE,delta=2,merge=1,group=0
  3370                           	line	147
  3371                           global __ptext7
  3372                           __ptext7:	;psect for function _dispLCD
  3373  0507                     psect	text7
  3374                           	file	"dispLCD4vias.c"
  3375                           	line	147
  3376                           	global	__size_of_dispLCD
  3377                           	__size_of_dispLCD	equ	__end_of_dispLCD-_dispLCD
  3378  0037                     	
  3379                           _dispLCD:	
  3380  0507                     ;incstack = 0
  3381                           	opt	stack 4
  3382                           ; Regs used in _dispLCD: [wreg-fsr0h+status,2+status,0+pclath+cstack]
  3383                           ;dispLCD@lin stored from wreg
  3384                           	bcf	status, 5	;RP0=0, select bank0
  3385  0507  1283               	bcf	status, 6	;RP1=0, select bank0
  3386  0508  1303               	movwf	(dispLCD@lin)
  3387  0509  00A2               	line	149
  3388                           	
  3389                           l1428:	
  3390  050A                     ;dispLCD4vias.c: 147: void dispLCD( unsigned char lin, unsigned char col, const char * s
                                 tr );dispLCD4vias.c: 148: {;dispLCD4vias.c: 149:     char pos = col;
  3391                           	movf	(dispLCD@col),w
  3392  050A  0878               	movwf	(??_dispLCD+0)+0
  3393  050B  00A0               	movf	(??_dispLCD+0)+0,w
  3394  050C  0820               	movwf	(dispLCD@pos)
  3395  050D  00A1               	line	150
  3396                           	
  3397                           l1430:	
  3398  050E                     ;dispLCD4vias.c: 150:     dispLCD_lincol( lin, col );
  3399                           	movf	(dispLCD@col),w
  3400  050E  0878               	movwf	(??_dispLCD+0)+0
  3401  050F  00A0               	movf	(??_dispLCD+0)+0,w
  3402  0510  0820               	movwf	(dispLCD_lincol@col)
  3403  0511  00F5               	movf	(dispLCD@lin),w
  3404  0512  0822               	fcall	_dispLCD_lincol
  3405  0513  120A  118A  25D2  120A  118A  	line	152
  3406                           ;dispLCD4vias.c: 152:     while( *str )
  3407                           	goto	l1438
  3408  0518  2D30               	
  3409                           l69:	
  3410  0519                     	line	154
  3411                           	
  3412                           l1432:	
  3413  0519                     ;dispLCD4vias.c: 153:     {;dispLCD4vias.c: 154:         dispLCD_dataReg( *str );
  3414                           	movf	(dispLCD@str),w
  3415  0519  0879               	movwf	fsr0
  3416  051A  0084               	fcall	stringdir
  3417  051B  120A  118A  2300  120A  118A  	fcall	_dispLCD_dataReg
  3418  0520  120A  118A  253E  120A  118A  	line	155
  3419                           	
  3420                           l1434:	
  3421  0525                     ;dispLCD4vias.c: 155:         ++str;
  3422                           	movlw	low(01h)
  3423  0525  3001               	bcf	status, 5	;RP0=0, select bank0
  3424  0526  1283               	bcf	status, 6	;RP1=0, select bank0
  3425  0527  1303               	movwf	(??_dispLCD+0)+0
  3426  0528  00A0               	movf	(??_dispLCD+0)+0,w
  3427  0529  0820               	addwf	(dispLCD@str),f
  3428  052A  07F9               	line	156
  3429                           	
  3430                           l1436:	
  3431  052B                     ;dispLCD4vias.c: 156:         ++pos;
  3432                           	movlw	low(01h)
  3433  052B  3001               	movwf	(??_dispLCD+0)+0
  3434  052C  00A0               	movf	(??_dispLCD+0)+0,w
  3435  052D  0820               	addwf	(dispLCD@pos),f
  3436  052E  07A1               	goto	l1438
  3437  052F  2D30               	line	157
  3438                           ;dispLCD4vias.c: 157:     }
  3439                           	
  3440                           l68:	
  3441  0530                     	line	152
  3442                           	
  3443                           l1438:	
  3444  0530                     ;dispLCD4vias.c: 152:     while( *str )
  3445                           	movf	(dispLCD@str),w
  3446  0530  0879               	movwf	fsr0
  3447  0531  0084               	fcall	stringdir
  3448  0532  120A  118A  2300  120A  118A  	xorlw	0
  3449  0537  3A00               	skipz
  3450  0538  1D03               	goto	u951
  3451  0539  2D3B               	goto	u950
  3452  053A  2D3C               u951:
  3453  053B                     	goto	l1432
  3454  053B  2D19               u950:
  3455  053C                     	goto	l71
  3456  053C  2D3D               	
  3457                           l70:	
  3458  053D                     	line	158
  3459                           	
  3460                           l71:	
  3461  053D                     	return
  3462  053D  0008               	opt stack 0
  3463                           GLOBAL	__end_of_dispLCD
  3464                           	__end_of_dispLCD:
  3465  053E                     	signat	_dispLCD,12409
  3466                           	global	_dispLCD_lincol
  3467                           
  3468 ;; *************** function _dispLCD_lincol *****************
  3469 ;; Defined at:
  3470 ;;		line 123 in file "dispLCD4vias.c"
  3471 ;; Parameters:    Size  Location     Type
  3472 ;;  lin             1    wreg     unsigned char 
  3473 ;;  col             1    5[COMMON] unsigned char 
  3474 ;; Auto vars:     Size  Location     Type
  3475 ;;  lin             1    7[COMMON] unsigned char 
  3476 ;; Return value:  Size  Location     Type
  3477 ;;                  1    wreg      void 
  3478 ;; Registers used:
  3479 ;;		wreg, status,2, status,0, pclath, cstack
  3480 ;; Tracked objects:
  3481 ;;		On entry : 0/0
  3482 ;;		On exit  : 0/0
  3483 ;;		Unchanged: 0/0
  3484 ;; Data sizes:     COMMON   BANK0   BANK1   BANK3   BANK2
  3485 ;;      Params:         1       0       0       0       0
  3486 ;;      Locals:         1       0       0       0       0
  3487 ;;      Temps:          1       0       0       0       0
  3488 ;;      Totals:         3       0       0       0       0
  3489 ;;Total ram usage:        3 bytes
  3490 ;; Hardware stack levels used:    1
  3491 ;; Hardware stack levels required when called:    2
  3492 ;; This function calls:
  3493 ;;		_dispLCD_instReg
  3494 ;; This function is called by:
  3495 ;;		_dispLCD
  3496 ;;		_dispLCD_num
  3497 ;; This function uses a non-reentrant model
  3498 ;;
  3499                           psect	text8,local,class=CODE,delta=2,merge=1,group=0
  3500                           	line	123
  3501                           global __ptext8
  3502                           __ptext8:	;psect for function _dispLCD_lincol
  3503  05D2                     psect	text8
  3504                           	file	"dispLCD4vias.c"
  3505                           	line	123
  3506                           	global	__size_of_dispLCD_lincol
  3507                           	__size_of_dispLCD_lincol	equ	__end_of_dispLCD_lincol-_dispLCD_lincol
  3508  0013                     	
  3509                           _dispLCD_lincol:	
  3510  05D2                     ;incstack = 0
  3511                           	opt	stack 4
  3512                           ; Regs used in _dispLCD_lincol: [wreg+status,2+status,0+pclath+cstack]
  3513                           ;dispLCD_lincol@lin stored from wreg
  3514                           	movwf	(dispLCD_lincol@lin)
  3515  05D2  00F7               	line	125
  3516                           	
  3517                           l1098:	
  3518  05D3                     ;dispLCD4vias.c: 123: void dispLCD_lincol( unsigned char lin, unsigned char col);dispLCD
                                 4vias.c: 124: {;dispLCD4vias.c: 125:     dispLCD_instReg( (0x80+((0x40 * lin) + (col + 0
                                 x00) & 0x7F)) );
  3519                           	movf	(dispLCD_lincol@lin),w
  3520  05D3  0877               	movwf	(??_dispLCD_lincol+0)+0
  3521  05D4  00F6               	movlw	06h
  3522  05D5  3006               u515:
  3523  05D6                     	clrc
  3524  05D6  1003               	rlf	(??_dispLCD_lincol+0)+0,f
  3525  05D7  0DF6               	addlw	-1
  3526  05D8  3EFF               	skipz
  3527  05D9  1D03               	goto	u515
  3528  05DA  2DD6               	movf	(dispLCD_lincol@col),w
  3529  05DB  0875               	addwf	0+(??_dispLCD_lincol+0)+0,w
  3530  05DC  0776               	andlw	07Fh
  3531  05DD  397F               	addlw	080h
  3532  05DE  3E80               	fcall	_dispLCD_instReg
  3533  05DF  120A  118A  23B1  120A  118A  	line	126
  3534                           	
  3535                           l62:	
  3536  05E4                     	return
  3537  05E4  0008               	opt stack 0
  3538                           GLOBAL	__end_of_dispLCD_lincol
  3539                           	__end_of_dispLCD_lincol:
  3540  05E5                     	signat	_dispLCD_lincol,8313
  3541                           	global	_dispLCD_instReg
  3542                           
  3543 ;; *************** function _dispLCD_instReg *****************
  3544 ;; Defined at:
  3545 ;;		line 74 in file "dispLCD4vias.c"
  3546 ;; Parameters:    Size  Location     Type
  3547 ;;  i               1    wreg     unsigned char 
  3548 ;; Auto vars:     Size  Location     Type
  3549 ;;  i               1    4[COMMON] unsigned char 
  3550 ;; Return value:  Size  Location     Type
  3551 ;;                  1    wreg      void 
  3552 ;; Registers used:
  3553 ;;		wreg, status,2, status,0
  3554 ;; Tracked objects:
  3555 ;;		On entry : 0/0
  3556 ;;		On exit  : 0/0
  3557 ;;		Unchanged: 0/0
  3558 ;; Data sizes:     COMMON   BANK0   BANK1   BANK3   BANK2
  3559 ;;      Params:         0       0       0       0       0
  3560 ;;      Locals:         1       0       0       0       0
  3561 ;;      Temps:          2       0       0       0       0
  3562 ;;      Totals:         3       0       0       0       0
  3563 ;;Total ram usage:        3 bytes
  3564 ;; Hardware stack levels used:    1
  3565 ;; Hardware stack levels required when called:    1
  3566 ;; This function calls:
  3567 ;;		Nothing
  3568 ;; This function is called by:
  3569 ;;		_dispLCD_lincol
  3570 ;;		_dispLCD_init
  3571 ;;		_dispLCD_clr
  3572 ;; This function uses a non-reentrant model
  3573 ;;
  3574                           psect	text9,local,class=CODE,delta=2,merge=1,group=0
  3575                           	line	74
  3576                           global __ptext9
  3577                           __ptext9:	;psect for function _dispLCD_instReg
  3578  03B1                     psect	text9
  3579                           	file	"dispLCD4vias.c"
  3580                           	line	74
  3581                           	global	__size_of_dispLCD_instReg
  3582                           	__size_of_dispLCD_instReg	equ	__end_of_dispLCD_instReg-_dispLCD_instReg
  3583  0080                     	
  3584                           _dispLCD_instReg:	
  3585  03B1                     ;incstack = 0
  3586                           	opt	stack 4
  3587                           ; Regs used in _dispLCD_instReg: [wreg+status,2+status,0]
  3588                           ;dispLCD_instReg@i stored from wreg
  3589                           	movwf	(dispLCD_instReg@i)
  3590  03B1  00F4               	line	76
  3591                           	
  3592                           l1038:	
  3593  03B2                     ;dispLCD4vias.c: 74: void dispLCD_instReg( unsigned char i );dispLCD4vias.c: 75: {;dispL
                                 CD4vias.c: 76:     LCDbits.RS = 0;
  3594                           	bcf	status, 5	;RP0=0, select bank0
  3595  03B2  1283               	bcf	status, 6	;RP1=0, select bank0
  3596  03B3  1303               	bcf	(8),2	;volatile
  3597  03B4  1108               	line	77
  3598                           	
  3599                           l1040:	
  3600  03B5                     ;dispLCD4vias.c: 77:     LCDbits.BUS = (i>>4);
  3601                           	movf	(dispLCD_instReg@i),w
  3602  03B5  0874               	movwf	(??_dispLCD_instReg+0)+0
  3603  03B6  00F2               	movlw	04h
  3604  03B7  3004               u435:
  3605  03B8                     	clrc
  3606  03B8  1003               	rrf	(??_dispLCD_instReg+0)+0,f
  3607  03B9  0CF2               	addlw	-1
  3608  03BA  3EFF               	skipz
  3609  03BB  1D03               	goto	u435
  3610  03BC  2BB8               	movf	0+(??_dispLCD_instReg+0)+0,w
  3611  03BD  0872               	movwf	(??_dispLCD_instReg+1)+0
  3612  03BE  00F3               	swapf	(??_dispLCD_instReg+1)+0,f
  3613  03BF  0EF3               	movf	(8),w	;volatile
  3614  03C0  0808               	xorwf	(??_dispLCD_instReg+1)+0,w
  3615  03C1  0673               	andlw	not (((1<<4)-1)<<4)
  3616  03C2  390F               	xorwf	(??_dispLCD_instReg+1)+0,w
  3617  03C3  0673               	movwf	(8)	;volatile
  3618  03C4  0088               	line	79
  3619                           	
  3620                           l1042:	
  3621  03C5                     ;dispLCD4vias.c: 79:     LCDbits.EN = 0;
  3622                           	bcf	(8),3	;volatile
  3623  03C5  1188               	line	80
  3624                           ;dispLCD4vias.c: 80:     if( i == 0x01 || i == 0x02 )
  3625                           		decf	((dispLCD_instReg@i)),w
  3626  03C6  0374               	btfsc	status,2
  3627  03C7  1903               	goto	u441
  3628  03C8  2BCA               	goto	u440
  3629  03C9  2BCB               u441:
  3630  03CA                     	goto	l1046
  3631  03CA  2BD2               u440:
  3632  03CB                     	
  3633                           l1044:	
  3634  03CB                     		movlw	2
  3635  03CB  3002               	xorwf	((dispLCD_instReg@i)),w
  3636  03CC  0674               	btfss	status,2
  3637  03CD  1D03               	goto	u451
  3638  03CE  2BD0               	goto	u450
  3639  03CF  2BD1               u451:
  3640  03D0                     	goto	l1048
  3641  03D0  2BDC               u450:
  3642  03D1                     	goto	l1046
  3643  03D1  2BD2               	
  3644                           l49:	
  3645  03D2                     	line	81
  3646                           	
  3647                           l1046:	
  3648  03D2                     ;dispLCD4vias.c: 81:         _delay((unsigned long)((2)*(4000000/4000.0)));
  3649                           	opt asmopt_push
  3650                           opt asmopt_off
  3651                           movlw	3
  3652  03D2  3003               movwf	((??_dispLCD_instReg+0)+0+1),f
  3653  03D3  00F3               	movlw	151
  3654  03D4  3097               movwf	((??_dispLCD_instReg+0)+0),f
  3655  03D5  00F2               	u1067:
  3656  03D6                     decfsz	((??_dispLCD_instReg+0)+0),f
  3657  03D6  0BF2               	goto	u1067
  3658  03D7  2BD6               	decfsz	((??_dispLCD_instReg+0)+0+1),f
  3659  03D8  0BF3               	goto	u1067
  3660  03D9  2BD6               	nop2
  3661  03DA  2BDB               opt asmopt_pop
  3662                           
  3663                           	goto	l1050
  3664  03DB  2BE1               	line	82
  3665                           ;dispLCD4vias.c: 82:     else
  3666                           	
  3667                           l47:	
  3668  03DC                     	line	83
  3669                           	
  3670                           l1048:	
  3671  03DC                     ;dispLCD4vias.c: 83:         _delay((unsigned long)((40)*(4000000/4000000.0)));
  3672                           	opt asmopt_push
  3673                           opt asmopt_off
  3674                           	movlw	13
  3675  03DC  300D               movwf	((??_dispLCD_instReg+0)+0),f
  3676  03DD  00F2               	u1077:
  3677  03DE                     decfsz	(??_dispLCD_instReg+0)+0,f
  3678  03DE  0BF2               	goto	u1077
  3679  03DF  2BDE               opt asmopt_pop
  3680                           
  3681                           	goto	l1050
  3682  03E0  2BE1               	
  3683                           l50:	
  3684  03E1                     	line	84
  3685                           	
  3686                           l1050:	
  3687  03E1                     ;dispLCD4vias.c: 84:     LCDbits.EN = 1;
  3688                           	bcf	status, 5	;RP0=0, select bank0
  3689  03E1  1283               	bcf	status, 6	;RP1=0, select bank0
  3690  03E2  1303               	bsf	(8),3	;volatile
  3691  03E3  1588               	line	87
  3692                           	
  3693                           l1052:	
  3694  03E4                     ;dispLCD4vias.c: 87:     if( (i & 0xF0) == (0x20 | 0x00) )
  3695                           	movlw	low(0F0h)
  3696  03E4  30F0               	andwf	(dispLCD_instReg@i),w
  3697  03E5  0574               	movwf	(??_dispLCD_instReg+0)+0
  3698  03E6  00F2               		movlw	32
  3699  03E7  3020               	xorwf	((??_dispLCD_instReg+0)+0),w
  3700  03E8  0672               	btfss	status,2
  3701  03E9  1D03               	goto	u461
  3702  03EA  2BEC               	goto	u460
  3703  03EB  2BED               u461:
  3704  03EC                     	goto	l1064
  3705  03EC  2C07               u460:
  3706  03ED                     	line	89
  3707                           	
  3708                           l1054:	
  3709  03ED                     ;dispLCD4vias.c: 88:     {;dispLCD4vias.c: 89:         LCDbits.RS = 0;
  3710                           	bcf	(8),2	;volatile
  3711  03ED  1108               	line	90
  3712                           	
  3713                           l1056:	
  3714  03EE                     ;dispLCD4vias.c: 90:         LCDbits.BUS = i>>4;
  3715                           	movf	(dispLCD_instReg@i),w
  3716  03EE  0874               	movwf	(??_dispLCD_instReg+0)+0
  3717  03EF  00F2               	movlw	04h
  3718  03F0  3004               u475:
  3719  03F1                     	clrc
  3720  03F1  1003               	rrf	(??_dispLCD_instReg+0)+0,f
  3721  03F2  0CF2               	addlw	-1
  3722  03F3  3EFF               	skipz
  3723  03F4  1D03               	goto	u475
  3724  03F5  2BF1               	movf	0+(??_dispLCD_instReg+0)+0,w
  3725  03F6  0872               	movwf	(??_dispLCD_instReg+1)+0
  3726  03F7  00F3               	swapf	(??_dispLCD_instReg+1)+0,f
  3727  03F8  0EF3               	movf	(8),w	;volatile
  3728  03F9  0808               	xorwf	(??_dispLCD_instReg+1)+0,w
  3729  03FA  0673               	andlw	not (((1<<4)-1)<<4)
  3730  03FB  390F               	xorwf	(??_dispLCD_instReg+1)+0,w
  3731  03FC  0673               	movwf	(8)	;volatile
  3732  03FD  0088               	line	91
  3733                           	
  3734                           l1058:	
  3735  03FE                     ;dispLCD4vias.c: 91:         LCDbits.EN = 0;
  3736                           	bcf	(8),3	;volatile
  3737  03FE  1188               	line	92
  3738                           	
  3739                           l1060:	
  3740  03FF                     ;dispLCD4vias.c: 92:         _delay((unsigned long)((40)*(4000000/4000000.0)));
  3741                           	opt asmopt_push
  3742                           opt asmopt_off
  3743                           	movlw	13
  3744  03FF  300D               movwf	((??_dispLCD_instReg+0)+0),f
  3745  0400  00F2               	u1087:
  3746  0401                     decfsz	(??_dispLCD_instReg+0)+0,f
  3747  0401  0BF2               	goto	u1087
  3748  0402  2C01               opt asmopt_pop
  3749                           
  3750                           	line	93
  3751                           	
  3752                           l1062:	
  3753  0403                     ;dispLCD4vias.c: 93:         LCDbits.EN = 1;
  3754                           	bcf	status, 5	;RP0=0, select bank0
  3755  0403  1283               	bcf	status, 6	;RP1=0, select bank0
  3756  0404  1303               	bsf	(8),3	;volatile
  3757  0405  1588               	goto	l1064
  3758  0406  2C07               	line	94
  3759                           ;dispLCD4vias.c: 94:     }
  3760                           	
  3761                           l51:	
  3762  0407                     	line	96
  3763                           	
  3764                           l1064:	
  3765  0407                     ;dispLCD4vias.c: 96:     LCDbits.RS = 0;
  3766                           	bcf	(8),2	;volatile
  3767  0407  1108               	line	97
  3768                           	
  3769                           l1066:	
  3770  0408                     ;dispLCD4vias.c: 97:     LCDbits.BUS = i & 0x0F;
  3771                           	movf	(dispLCD_instReg@i),w
  3772  0408  0874               	andlw	0Fh
  3773  0409  390F               	movwf	(??_dispLCD_instReg+0)+0
  3774  040A  00F2               	swapf	(??_dispLCD_instReg+0)+0,f
  3775  040B  0EF2               	movf	(8),w	;volatile
  3776  040C  0808               	xorwf	(??_dispLCD_instReg+0)+0,w
  3777  040D  0672               	andlw	not (((1<<4)-1)<<4)
  3778  040E  390F               	xorwf	(??_dispLCD_instReg+0)+0,w
  3779  040F  0672               	movwf	(8)	;volatile
  3780  0410  0088               	line	98
  3781                           	
  3782                           l1068:	
  3783  0411                     ;dispLCD4vias.c: 98:     LCDbits.EN = 0;
  3784                           	bcf	(8),3	;volatile
  3785  0411  1188               	line	99
  3786                           	
  3787                           l1070:	
  3788  0412                     ;dispLCD4vias.c: 99:     if( i == 0x01 || i == 0x02 )
  3789                           		decf	((dispLCD_instReg@i)),w
  3790  0412  0374               	btfsc	status,2
  3791  0413  1903               	goto	u481
  3792  0414  2C16               	goto	u480
  3793  0415  2C17               u481:
  3794  0416                     	goto	l1074
  3795  0416  2C1E               u480:
  3796  0417                     	
  3797                           l1072:	
  3798  0417                     		movlw	2
  3799  0417  3002               	xorwf	((dispLCD_instReg@i)),w
  3800  0418  0674               	btfss	status,2
  3801  0419  1D03               	goto	u491
  3802  041A  2C1C               	goto	u490
  3803  041B  2C1D               u491:
  3804  041C                     	goto	l1076
  3805  041C  2C28               u490:
  3806  041D                     	goto	l1074
  3807  041D  2C1E               	
  3808                           l54:	
  3809  041E                     	line	100
  3810                           	
  3811                           l1074:	
  3812  041E                     ;dispLCD4vias.c: 100:         _delay((unsigned long)((2)*(4000000/4000.0)));
  3813                           	opt asmopt_push
  3814                           opt asmopt_off
  3815                           movlw	3
  3816  041E  3003               movwf	((??_dispLCD_instReg+0)+0+1),f
  3817  041F  00F3               	movlw	151
  3818  0420  3097               movwf	((??_dispLCD_instReg+0)+0),f
  3819  0421  00F2               	u1097:
  3820  0422                     decfsz	((??_dispLCD_instReg+0)+0),f
  3821  0422  0BF2               	goto	u1097
  3822  0423  2C22               	decfsz	((??_dispLCD_instReg+0)+0+1),f
  3823  0424  0BF3               	goto	u1097
  3824  0425  2C22               	nop2
  3825  0426  2C27               opt asmopt_pop
  3826                           
  3827                           	goto	l1078
  3828  0427  2C2D               	line	101
  3829                           ;dispLCD4vias.c: 101:     else
  3830                           	
  3831                           l52:	
  3832  0428                     	line	102
  3833                           	
  3834                           l1076:	
  3835  0428                     ;dispLCD4vias.c: 102:         _delay((unsigned long)((40)*(4000000/4000000.0)));
  3836                           	opt asmopt_push
  3837                           opt asmopt_off
  3838                           	movlw	13
  3839  0428  300D               movwf	((??_dispLCD_instReg+0)+0),f
  3840  0429  00F2               	u1107:
  3841  042A                     decfsz	(??_dispLCD_instReg+0)+0,f
  3842  042A  0BF2               	goto	u1107
  3843  042B  2C2A               opt asmopt_pop
  3844                           
  3845                           	goto	l1078
  3846  042C  2C2D               	
  3847                           l55:	
  3848  042D                     	line	103
  3849                           	
  3850                           l1078:	
  3851  042D                     ;dispLCD4vias.c: 103:     LCDbits.EN = 1;
  3852                           	bcf	status, 5	;RP0=0, select bank0
  3853  042D  1283               	bcf	status, 6	;RP1=0, select bank0
  3854  042E  1303               	bsf	(8),3	;volatile
  3855  042F  1588               	line	104
  3856                           	
  3857                           l56:	
  3858  0430                     	return
  3859  0430  0008               	opt stack 0
  3860                           GLOBAL	__end_of_dispLCD_instReg
  3861                           	__end_of_dispLCD_instReg:
  3862  0431                     	signat	_dispLCD_instReg,4217
  3863                           	global	_dispLCD_dataReg
  3864                           
  3865 ;; *************** function _dispLCD_dataReg *****************
  3866 ;; Defined at:
  3867 ;;		line 107 in file "dispLCD4vias.c"
  3868 ;; Parameters:    Size  Location     Type
  3869 ;;  d               1    wreg     unsigned char 
  3870 ;; Auto vars:     Size  Location     Type
  3871 ;;  d               1    4[COMMON] unsigned char 
  3872 ;; Return value:  Size  Location     Type
  3873 ;;                  1    wreg      void 
  3874 ;; Registers used:
  3875 ;;		wreg, status,2, status,0
  3876 ;; Tracked objects:
  3877 ;;		On entry : 0/0
  3878 ;;		On exit  : 0/0
  3879 ;;		Unchanged: 0/0
  3880 ;; Data sizes:     COMMON   BANK0   BANK1   BANK3   BANK2
  3881 ;;      Params:         0       0       0       0       0
  3882 ;;      Locals:         1       0       0       0       0
  3883 ;;      Temps:          2       0       0       0       0
  3884 ;;      Totals:         3       0       0       0       0
  3885 ;;Total ram usage:        3 bytes
  3886 ;; Hardware stack levels used:    1
  3887 ;; Hardware stack levels required when called:    1
  3888 ;; This function calls:
  3889 ;;		Nothing
  3890 ;; This function is called by:
  3891 ;;		_dispLCD
  3892 ;;		_dispLCD_num
  3893 ;; This function uses a non-reentrant model
  3894 ;;
  3895                           psect	text10,local,class=CODE,delta=2,merge=1,group=0
  3896                           	line	107
  3897                           global __ptext10
  3898                           __ptext10:	;psect for function _dispLCD_dataReg
  3899  053E                     psect	text10
  3900                           	file	"dispLCD4vias.c"
  3901                           	line	107
  3902                           	global	__size_of_dispLCD_dataReg
  3903                           	__size_of_dispLCD_dataReg	equ	__end_of_dispLCD_dataReg-_dispLCD_dataReg
  3904  002F                     	
  3905                           _dispLCD_dataReg:	
  3906  053E                     ;incstack = 0
  3907                           	opt	stack 5
  3908                           ; Regs used in _dispLCD_dataReg: [wreg+status,2+status,0]
  3909                           ;dispLCD_dataReg@d stored from wreg
  3910                           	movwf	(dispLCD_dataReg@d)
  3911  053E  00F4               	line	109
  3912                           	
  3913                           l1080:	
  3914  053F                     ;dispLCD4vias.c: 107: void dispLCD_dataReg( unsigned char d );dispLCD4vias.c: 108: {;dis
                                 pLCD4vias.c: 109:     LCDbits.RS = 1;
  3915                           	bcf	status, 5	;RP0=0, select bank0
  3916  053F  1283               	bcf	status, 6	;RP1=0, select bank0
  3917  0540  1303               	bsf	(8),2	;volatile
  3918  0541  1508               	line	110
  3919                           	
  3920                           l1082:	
  3921  0542                     ;dispLCD4vias.c: 110:     LCDbits.BUS = d >> 4;
  3922                           	movf	(dispLCD_dataReg@d),w
  3923  0542  0874               	movwf	(??_dispLCD_dataReg+0)+0
  3924  0543  00F2               	movlw	04h
  3925  0544  3004               u505:
  3926  0545                     	clrc
  3927  0545  1003               	rrf	(??_dispLCD_dataReg+0)+0,f
  3928  0546  0CF2               	addlw	-1
  3929  0547  3EFF               	skipz
  3930  0548  1D03               	goto	u505
  3931  0549  2D45               	movf	0+(??_dispLCD_dataReg+0)+0,w
  3932  054A  0872               	movwf	(??_dispLCD_dataReg+1)+0
  3933  054B  00F3               	swapf	(??_dispLCD_dataReg+1)+0,f
  3934  054C  0EF3               	movf	(8),w	;volatile
  3935  054D  0808               	xorwf	(??_dispLCD_dataReg+1)+0,w
  3936  054E  0673               	andlw	not (((1<<4)-1)<<4)
  3937  054F  390F               	xorwf	(??_dispLCD_dataReg+1)+0,w
  3938  0550  0673               	movwf	(8)	;volatile
  3939  0551  0088               	line	111
  3940                           	
  3941                           l1084:	
  3942  0552                     ;dispLCD4vias.c: 111:     LCDbits.EN = 0;
  3943                           	bcf	(8),3	;volatile
  3944  0552  1188               	line	112
  3945                           	
  3946                           l1086:	
  3947  0553                     ;dispLCD4vias.c: 112:     _delay((unsigned long)((40)*(4000000/4000000.0)));
  3948                           	opt asmopt_push
  3949                           opt asmopt_off
  3950                           	movlw	13
  3951  0553  300D               movwf	((??_dispLCD_dataReg+0)+0),f
  3952  0554  00F2               	u1117:
  3953  0555                     decfsz	(??_dispLCD_dataReg+0)+0,f
  3954  0555  0BF2               	goto	u1117
  3955  0556  2D55               opt asmopt_pop
  3956                           
  3957                           	line	113
  3958                           	
  3959                           l1088:	
  3960  0557                     ;dispLCD4vias.c: 113:     LCDbits.EN = 1;
  3961                           	bcf	status, 5	;RP0=0, select bank0
  3962  0557  1283               	bcf	status, 6	;RP1=0, select bank0
  3963  0558  1303               	bsf	(8),3	;volatile
  3964  0559  1588               	line	115
  3965                           	
  3966                           l1090:	
  3967  055A                     ;dispLCD4vias.c: 115:     LCDbits.RS = 1;
  3968                           	bsf	(8),2	;volatile
  3969  055A  1508               	line	116
  3970                           	
  3971                           l1092:	
  3972  055B                     ;dispLCD4vias.c: 116:     LCDbits.BUS = d & 0x0F;
  3973                           	movf	(dispLCD_dataReg@d),w
  3974  055B  0874               	andlw	0Fh
  3975  055C  390F               	movwf	(??_dispLCD_dataReg+0)+0
  3976  055D  00F2               	swapf	(??_dispLCD_dataReg+0)+0,f
  3977  055E  0EF2               	movf	(8),w	;volatile
  3978  055F  0808               	xorwf	(??_dispLCD_dataReg+0)+0,w
  3979  0560  0672               	andlw	not (((1<<4)-1)<<4)
  3980  0561  390F               	xorwf	(??_dispLCD_dataReg+0)+0,w
  3981  0562  0672               	movwf	(8)	;volatile
  3982  0563  0088               	line	117
  3983                           	
  3984                           l1094:	
  3985  0564                     ;dispLCD4vias.c: 117:     LCDbits.EN = 0;
  3986                           	bcf	(8),3	;volatile
  3987  0564  1188               	line	118
  3988                           ;dispLCD4vias.c: 118:     _delay((unsigned long)((40)*(4000000/4000000.0)));
  3989                           	opt asmopt_push
  3990                           opt asmopt_off
  3991                           	movlw	13
  3992  0565  300D               movwf	((??_dispLCD_dataReg+0)+0),f
  3993  0566  00F2               	u1127:
  3994  0567                     decfsz	(??_dispLCD_dataReg+0)+0,f
  3995  0567  0BF2               	goto	u1127
  3996  0568  2D67               opt asmopt_pop
  3997                           
  3998                           	line	119
  3999                           	
  4000                           l1096:	
  4001  0569                     ;dispLCD4vias.c: 119:     LCDbits.EN = 1;
  4002                           	bcf	status, 5	;RP0=0, select bank0
  4003  0569  1283               	bcf	status, 6	;RP1=0, select bank0
  4004  056A  1303               	bsf	(8),3	;volatile
  4005  056B  1588               	line	120
  4006                           	
  4007                           l59:	
  4008  056C                     	return
  4009  056C  0008               	opt stack 0
  4010                           GLOBAL	__end_of_dispLCD_dataReg
  4011                           	__end_of_dispLCD_dataReg:
  4012  056D                     	signat	_dispLCD_dataReg,4217
  4013                           	global	_delay
  4014                           
  4015 ;; *************** function _delay *****************
  4016 ;; Defined at:
  4017 ;;		line 12 in file "delay.c"
  4018 ;; Parameters:    Size  Location     Type
  4019 ;;  t               2    2[COMMON] unsigned int 
  4020 ;; Auto vars:     Size  Location     Type
  4021 ;;		None
  4022 ;; Return value:  Size  Location     Type
  4023 ;;                  1    wreg      void 
  4024 ;; Registers used:
  4025 ;;		wreg, status,2, status,0
  4026 ;; Tracked objects:
  4027 ;;		On entry : 0/0
  4028 ;;		On exit  : 0/0
  4029 ;;		Unchanged: 0/0
  4030 ;; Data sizes:     COMMON   BANK0   BANK1   BANK3   BANK2
  4031 ;;      Params:         2       0       0       0       0
  4032 ;;      Locals:         0       0       0       0       0
  4033 ;;      Temps:          1       0       0       0       0
  4034 ;;      Totals:         3       0       0       0       0
  4035 ;;Total ram usage:        3 bytes
  4036 ;; Hardware stack levels used:    1
  4037 ;; Hardware stack levels required when called:    1
  4038 ;; This function calls:
  4039 ;;		Nothing
  4040 ;; This function is called by:
  4041 ;;		_main
  4042 ;; This function uses a non-reentrant model
  4043 ;;
  4044                           psect	text11,local,class=CODE,delta=2,merge=1,group=0
  4045                           	file	"delay.c"
  4046                           	line	12
  4047                           global __ptext11
  4048                           __ptext11:	;psect for function _delay
  4049  05BB                     psect	text11
  4050                           	file	"delay.c"
  4051                           	line	12
  4052                           	global	__size_of_delay
  4053                           	__size_of_delay	equ	__end_of_delay-_delay
  4054  0017                     	
  4055                           _delay:	
  4056  05BB                     ;incstack = 0
  4057                           	opt	stack 6
  4058                           ; Regs used in _delay: [wreg+status,2+status,0]
  4059                           	line	14
  4060                           	
  4061                           l1212:	
  4062  05BB                     ;delay.c: 12: void delay ( unsigned int t );delay.c: 13: {;delay.c: 14:     while ( t )

  4063                           	goto	l1216
  4064  05BB  2DCA               	
  4065                           l97:	
  4066  05BC                     	line	16
  4067                           	
  4068                           l1214:	
  4069  05BC                     ;delay.c: 15:     {;delay.c: 16:         --t;
  4070                           	movlw	01h
  4071  05BC  3001               	subwf	(delay@t),f
  4072  05BD  02F2               	movlw	0
  4073  05BE  3000               	skipc
  4074  05BF  1C03               	decf	(delay@t+1),f
  4075  05C0  03F3               	subwf	(delay@t+1),f
  4076  05C1  02F3               	line	17
  4077                           ;delay.c: 17:         _delay((unsigned long)((1)*(4000000/4000.0)));
  4078                           	opt asmopt_push
  4079                           opt asmopt_off
  4080                           	movlw	199
  4081  05C2  30C7               movwf	((??_delay+0)+0),f
  4082  05C3  00F4               	u1137:
  4083  05C4                     	nop2
  4084  05C4  2DC5               decfsz	(??_delay+0)+0,f
  4085  05C5  0BF4               	goto	u1137
  4086  05C6  2DC4               	nop2
  4087  05C7  2DC8               	nop2
  4088  05C8  2DC9               opt asmopt_pop
  4089                           
  4090                           	goto	l1216
  4091  05C9  2DCA               	line	18
  4092                           ;delay.c: 18:     }
  4093                           	
  4094                           l96:	
  4095  05CA                     	line	14
  4096                           	
  4097                           l1216:	
  4098  05CA                     ;delay.c: 14:     while ( t )
  4099                           	movf	((delay@t)),w
  4100  05CA  0872               iorwf	((delay@t+1)),w
  4101  05CB  0473               	btfss	status,2
  4102  05CC  1D03               	goto	u721
  4103  05CD  2DCF               	goto	u720
  4104  05CE  2DD0               u721:
  4105  05CF                     	goto	l1214
  4106  05CF  2DBC               u720:
  4107  05D0                     	goto	l99
  4108  05D0  2DD1               	
  4109                           l98:	
  4110  05D1                     	line	19
  4111                           	
  4112                           l99:	
  4113  05D1                     	return
  4114  05D1  0008               	opt stack 0
  4115                           GLOBAL	__end_of_delay
  4116                           	__end_of_delay:
  4117  05D2                     	signat	_delay,4217
  4118                           	global	_ossada
  4119                           
  4120 ;; *************** function _ossada *****************
  4121 ;; Defined at:
  4122 ;;		line 27 in file "timer.c"
  4123 ;; Parameters:    Size  Location     Type
  4124 ;;		None
  4125 ;; Auto vars:     Size  Location     Type
  4126 ;;		None
  4127 ;; Return value:  Size  Location     Type
  4128 ;;                  1    wreg      void 
  4129 ;; Registers used:
  4130 ;;		wreg, status,2, status,0
  4131 ;; Tracked objects:
  4132 ;;		On entry : 0/0
  4133 ;;		On exit  : 0/0
  4134 ;;		Unchanged: 0/0
  4135 ;; Data sizes:     COMMON   BANK0   BANK1   BANK3   BANK2
  4136 ;;      Params:         0       0       0       0       0
  4137 ;;      Locals:         0       0       0       0       0
  4138 ;;      Temps:          2       0       0       0       0
  4139 ;;      Totals:         2       0       0       0       0
  4140 ;;Total ram usage:        2 bytes
  4141 ;; Hardware stack levels used:    1
  4142 ;; This function calls:
  4143 ;;		Nothing
  4144 ;; This function is called by:
  4145 ;;		Interrupt level 1
  4146 ;; This function uses a non-reentrant model
  4147 ;;
  4148                           psect	text12,local,class=CODE,delta=2,merge=1,group=0
  4149                           	file	"timer.c"
  4150                           	line	27
  4151                           global __ptext12
  4152                           __ptext12:	;psect for function _ossada
  4153  056D                     psect	text12
  4154                           	file	"timer.c"
  4155                           	line	27
  4156                           	global	__size_of_ossada
  4157                           	__size_of_ossada	equ	__end_of_ossada-_ossada
  4158  002A                     	
  4159                           _ossada:	
  4160  056D                     ;incstack = 0
  4161                           	opt	stack 4
  4162                           ; Regs used in _ossada: [wreg+status,2+status,0]
  4163                           psect	intentry,class=CODE,delta=2
  4164                           global __pintentry
  4165                           __pintentry:
  4166  0004                     global interrupt_function
  4167                           interrupt_function:
  4168  0004                     	global saved_w
  4169                           	saved_w	set	btemp+0
  4170  007E                     	movwf	saved_w
  4171  0004  00FE               	swapf	status,w
  4172  0005  0E03               	movwf	(??_ossada+0)
  4173  0006  00F0               	movf	pclath,w
  4174  0007  080A               	movwf	(??_ossada+1)
  4175  0008  00F1               	ljmp	_ossada
  4176  0009  120A  118A  2D6D   psect	text12
  4177                           	line	29
  4178                           	
  4179                           i1l1342:	
  4180  056D                     ;timer.c: 29:     INTCONbits.GIE = 0;
  4181                           	bcf	(11),7	;volatile
  4182  056D  138B               	line	30
  4183                           ;timer.c: 30:     if(INTCONbits.PEIE)
  4184                           	btfss	(11),6	;volatile
  4185  056E  1F0B               	goto	u83_21
  4186  056F  2D71               	goto	u83_20
  4187  0570  2D72               u83_21:
  4188  0571                     	goto	i1l1352
  4189  0571  2D8F               u83_20:
  4190  0572                     	line	32
  4191                           	
  4192                           i1l1344:	
  4193  0572                     ;timer.c: 31:     {;timer.c: 32:         INTCONbits.PEIE = 0;
  4194                           	bcf	(11),6	;volatile
  4195  0572  130B               	line	33
  4196                           	
  4197                           i1l1346:	
  4198  0573                     ;timer.c: 33:         TMR2 = 256-156;
  4199                           	movlw	low(064h)
  4200  0573  3064               	bcf	status, 5	;RP0=0, select bank0
  4201  0574  1283               	bcf	status, 6	;RP1=0, select bank0
  4202  0575  1303               	movwf	(17)	;volatile
  4203  0576  0091               	line	34
  4204                           ;timer.c: 34:         --t2seg;
  4205                           	movlw	01h
  4206  0577  3001               	subwf	(_t2seg),f
  4207  0578  02FA               	movlw	0
  4208  0579  3000               	skipc
  4209  057A  1C03               	decf	(_t2seg+1),f
  4210  057B  03FB               	subwf	(_t2seg+1),f
  4211  057C  02FB               	line	35
  4212                           	
  4213                           i1l1348:	
  4214  057D                     ;timer.c: 35:         if ( !t2seg)
  4215                           	movf	((_t2seg)),w
  4216  057D  087A               iorwf	((_t2seg+1)),w
  4217  057E  047B               	btfss	status,2
  4218  057F  1D03               	goto	u84_21
  4219  0580  2D82               	goto	u84_20
  4220  0581  2D83               u84_21:
  4221  0582                     	goto	i1l1352
  4222  0582  2D8F               u84_20:
  4223  0583                     	line	37
  4224                           	
  4225                           i1l1350:	
  4226  0583                     ;timer.c: 36:         {;timer.c: 37:             t2seg = 10000;
  4227                           	movlw	010h
  4228  0583  3010               	movwf	(_t2seg)
  4229  0584  00FA               	movlw	027h
  4230  0585  3027               	movwf	((_t2seg))+1
  4231  0586  00FB               	line	38
  4232                           ;timer.c: 38:             ++contador;
  4233                           	movlw	01h
  4234  0587  3001               	addwf	(_contador),f
  4235  0588  07BA               	skipnc
  4236  0589  1803               	incf	(_contador+1),f
  4237  058A  0ABB               	movlw	0
  4238  058B  3000               	addwf	(_contador+1),f
  4239  058C  07BB               	goto	i1l1352
  4240  058D  2D8F               	line	39
  4241                           ;timer.c: 39:         }
  4242                           	
  4243                           i1l118:	
  4244  058E                     	goto	i1l1352
  4245  058E  2D8F               	line	40
  4246                           ;timer.c: 40:     }
  4247                           	
  4248                           i1l117:	
  4249  058F                     	line	41
  4250                           	
  4251                           i1l1352:	
  4252  058F                     ;timer.c: 41:     INTCONbits.GIE = 1;
  4253                           	bsf	(11),7	;volatile
  4254  058F  178B               	line	42
  4255                           	
  4256                           i1l119:	
  4257  0590                     	movf	(??_ossada+1),w
  4258  0590  0871               	movwf	pclath
  4259  0591  008A               	swapf	(??_ossada+0)^0FFFFFF80h,w
  4260  0592  0E70               	movwf	status
  4261  0593  0083               	swapf	saved_w,f
  4262  0594  0EFE               	swapf	saved_w,w
  4263  0595  0E7E               	retfie
  4264  0596  0009               	opt stack 0
  4265                           GLOBAL	__end_of_ossada
  4266                           	__end_of_ossada:
  4267  0597                     	signat	_ossada,89
  4268                           global	___latbits
  4269                           ___latbits	equ	2
  4270  0002                     	global	btemp
  4271                           	btemp set 07Eh
  4272  007E                     
  4273                           	DABS	1,126,2	;btemp
  4274                           	global	wtemp0
  4275                           	wtemp0 set btemp+0
  4276  007E                     	end


Data Sizes:
    Strings     171
    Constant    0
    Data        0
    BSS         4
    Persistent  0
    Stack       0

Auto Spaces:
    Space          Size  Autos    Used
    COMMON           14     10      12
    BANK0            80     26      28
    BANK1            80      0       0
    BANK3            96      0       0
    BANK2            96      0       0

Pointer List with Targets:

    dispLCD@str	PTR const unsigned char  size(1) Largest target is 20
		 -> STR_10(CODE[15]), STR_9(CODE[17]), STR_8(CODE[17]), STR_7(CODE[17]), 
		 -> STR_6(CODE[17]), STR_5(CODE[17]), STR_4(CODE[17]), STR_3(CODE[17]), 
		 -> STR_2(CODE[17]), STR_1(CODE[20]), 


Critical Paths under _main in COMMON

    _main->_dispLCD
    _dispLCD_num->___awmod
    _dispLCD_init->_dispLCD_instReg
    _dispLCD_clr->_dispLCD_instReg
    _dispLCD->_dispLCD_lincol
    _dispLCD_lincol->_dispLCD_instReg

Critical Paths under _ossada in COMMON

    None.

Critical Paths under _main in BANK0

    _main->_dispLCD_num
    _dispLCD_num->___awdiv

Critical Paths under _ossada in BANK0

    None.

Critical Paths under _main in BANK1

    None.

Critical Paths under _ossada in BANK1

    None.

Critical Paths under _main in BANK3

    None.

Critical Paths under _ossada in BANK3

    None.

Critical Paths under _main in BANK2

    None.

Critical Paths under _ossada in BANK2

    None.

Call Graph Tables:

 ---------------------------------------------------------------------------------
 (Depth) Function   	        Calls       Base Space   Used Autos Params    Refs
 ---------------------------------------------------------------------------------
 (0) _main                                                10    10      0    6589
                                             16 BANK0     10    10      0
                              _delay
                            _dispLCD
                        _dispLCD_clr
                       _dispLCD_init
                        _dispLCD_num
                        _timer2_init
 ---------------------------------------------------------------------------------
 (1) _timer2_init                                          0     0      0       0
 ---------------------------------------------------------------------------------
 (1) _dispLCD_num                                         12     8      4    2946
                                              4 BANK0     12     8      4
                            ___awdiv
                            ___awmod
                    _dispLCD_dataReg
                     _dispLCD_lincol
 ---------------------------------------------------------------------------------
 (2) ___awmod                                              7     3      4     448
                                              2 COMMON     7     3      4
 ---------------------------------------------------------------------------------
 (2) ___awdiv                                              9     5      4    1165
                                              2 COMMON     5     1      4
                                              0 BANK0      4     4      0
 ---------------------------------------------------------------------------------
 (1) _dispLCD_init                                         0     0      0     176
                    _dispLCD_instReg
 ---------------------------------------------------------------------------------
 (1) _dispLCD_clr                                          0     0      0     176
                    _dispLCD_instReg
 ---------------------------------------------------------------------------------
 (1) _dispLCD                                              5     3      2    2380
                                              8 COMMON     2     0      2
                                              0 BANK0      3     3      0
                    _dispLCD_dataReg
                     _dispLCD_lincol
 ---------------------------------------------------------------------------------
 (2) _dispLCD_lincol                                       3     2      1     372
                                              5 COMMON     3     2      1
                    _dispLCD_instReg
 ---------------------------------------------------------------------------------
 (3) _dispLCD_instReg                                      3     3      0     176
                                              2 COMMON     3     3      0
 ---------------------------------------------------------------------------------
 (2) _dispLCD_dataReg                                      3     3      0      44
                                              2 COMMON     3     3      0
 ---------------------------------------------------------------------------------
 (1) _delay                                                3     1      2     631
                                              2 COMMON     3     1      2
 ---------------------------------------------------------------------------------
 Estimated maximum stack depth 3
 ---------------------------------------------------------------------------------
 (Depth) Function   	        Calls       Base Space   Used Autos Params    Refs
 ---------------------------------------------------------------------------------
 (4) _ossada                                               2     2      0       0
                                              0 COMMON     2     2      0
 ---------------------------------------------------------------------------------
 Estimated maximum stack depth 4
 ---------------------------------------------------------------------------------

 Call Graph Graphs:

 _main (ROOT)
   _delay
   _dispLCD
     _dispLCD_dataReg
     _dispLCD_lincol
       _dispLCD_instReg
   _dispLCD_clr
     _dispLCD_instReg
   _dispLCD_init
     _dispLCD_instReg
   _dispLCD_num
     ___awdiv
     ___awmod
     _dispLCD_dataReg
     _dispLCD_lincol
       _dispLCD_instReg
   _timer2_init

 _ossada (ROOT)

 Address spaces:
Name               Size   Autos  Total    Cost      Usage
BITCOMMON            E      0       0       0        0.0%
EEDATA             100      0       0       0        0.0%
NULL                 0      0       0       0        0.0%
CODE                 0      0       0       0        0.0%
COMMON               E      A       C       1       85.7%
BITSFR0              0      0       0       1        0.0%
SFR0                 0      0       0       1        0.0%
BITSFR1              0      0       0       2        0.0%
SFR1                 0      0       0       2        0.0%
STACK                0      0       0       2        0.0%
ABS                  0      0      28       3        0.0%
BITBANK0            50      0       0       4        0.0%
BITSFR3              0      0       0       4        0.0%
SFR3                 0      0       0       4        0.0%
BANK0               50     1A      1C       5       35.0%
BITSFR2              0      0       0       5        0.0%
SFR2                 0      0       0       5        0.0%
BITBANK1            50      0       0       6        0.0%
BANK1               50      0       0       7        0.0%
BITBANK3            60      0       0       8        0.0%
BANK3               60      0       0       9        0.0%
BITBANK2            60      0       0      10        0.0%
BANK2               60      0       0      11        0.0%
DATA                 0      0      28      12        0.0%


Microchip Technology PIC Macro Assembler V2.00 build -1524193055 
Symbol Table                                                                                   Wed Jun 16 16:43:37 2021

                       pc 0002               __CFG_CP$OFF 0000                        l21 0030  
                      l22 0177                        l30 00F1                        l31 010E  
                      l23 0031                        l24 019E                        l32 0137  
                      l33 014E                        l25 004E                        l50 03E1  
                      l34 0153                        l26 006B                        l51 0407  
                      l35 0154                        l27 0080                        l52 0428  
                      l36 019F                        l28 00AA                        l37 01A0  
                      l29 00D4                        l54 041E                        l62 05E4  
                      l70 053D                        l38 01A0                        l55 042D  
                      l47 03DC                        l71 053D                        l56 0430  
                      l80 0218                        l49 03D2                        l65 05BA  
                      l81 020D                        l74 01BA                        l59 056C  
                      l91 05FD                        l83 0235                        l75 01FE  
                      l68 0530                        l84 0236                        l76 01CF  
                      l69 0519                        l85 0244                        l77 01E9  
                      l86 0244                        l78 01EA                        l87 0290  
                      l79 020C                        l96 05CA                        l88 0290  
                      l97 05BC                        l98 05D1                        l99 05D1  
            ___awdiv@sign 0021   __end_of_dispLCD_dataReg 056D                        fsr 0004  
                     l112 05F6                       l350 0493                       l351 0465  
                     l352 0459                       l353 046A                       l361 04B1  
                     l354 046B                       l370 0501                       l362 04BB  
                     l355 0484                       l371 0506                       l363 04F6  
                     l356 0492                       l348 0440                       l364 04D0  
                     l357 049E                       l349 044E                       l365 04C4  
                     l358 04A3                       l366 04D5                       l367 04D6  
                     l368 04E7                       l369 04F5                       u440 03CB  
                     u505 0545                       u441 03CA                       u450 03D1  
            __CFG_CPD$OFF 0000                       u451 03D0                       u435 03B8  
                     u515 05D6                       u460 03ED                       u700 04FB  
                     u620 04A9                       u461 03EC                       u701 04FA  
                     u621 04A8                       u630 04B5                       u631 04B4  
                     u720 05D0                       u480 0417                       u640 04C1  
                     u721 05CF                       u481 0416                       u641 04C0  
                     u490 041D                       u491 041C                       u475 03F1  
                     u660 04D4                       u661 04D3                       u910 047C  
                     u670 04E0                       u911 047B                       u671 04DF  
                     u655 04C5                       u905 046C                       u930 0491  
                     u850 0438                       u690 04F4                       u931 0490  
                     u915 0478                       u851 0437                       u691 04F3  
                     u675 04DC                       u940 0498                       u860 0444  
                     u941 0497                       u925 0485                       u861 0443  
                     u685 04E8                       u950 053C                       u870 0456  
                     u951 053B                       u871 0455                       u960 01AB  
                     u961 01A9                       u890 0469                       u970 01AC  
                     u891 0468                       u980 01B4                       u885 045A  
                     u981 01B3                       u990 01E4                       u991 01E3  
                     fsr0 0004   __end_of_dispLCD_instReg 0431              ___awmod@sign 0078  
            __CFG_LVP$OFF 0000                      l1040 03B5                      l1050 03E1  
                    l1042 03C5                      l1212 05BB                      l1060 03FF  
                    l1052 03E4                      l1044 03CB                      l1214 05BC  
                    l1070 0412                      l1062 0403                      l1054 03ED  
                    l1046 03D2                      l1038 03B2                      l1150 04AE  
                    l1216 05CA                      l1080 053F                      l1072 0417  
                    l1056 03EE                      l1064 0407                      l1048 03DC  
                    l1400 0450                      l1160 04C4                      l1152 04B1  
                    l1144 04A4                      l1090 055A                      l1082 0542  
                    l1074 041E                      l1066 0408                      l1058 03FE  
                    l1218 05F7                      l1410 046B                      l1402 0456  
                    l1170 04E7                      l1162 04CB                      l1154 04B5  
                    l1146 04A5                      l1092 055B                      l1084 0552  
                    l1076 0428                      l1068 0411                      l1412 047C  
                    l1404 0459                      l1420 0493                      l1180 0506  
                    l1172 04EE                      l1164 04D0                      l1156 04BB  
                    l1148 04A9                      l1500 0070                      l1094 0564  
                    l1086 0553                      l1078 042D                      l1430 050E  
                    l1182 0597                      l1422 0498                      l1414 0482  
                    l1406 0460                      l1166 04D6                      l1158 04C1  
                    l1174 04F6                      l1190 05EC                      l1510 00AA  
                    l1502 0076                      l1096 0569                      l1088 0557  
                    l1432 0519                      l1184 05A2                      l1424 049E  
                    l1416 0484                      l1408 0465                      l1176 04FB  
                    l1168 04E0                      l1440 01A6                      l1192 05EE  
                    l1520 00E7                      l1512 00C4                      l1504 0080  
                    l1098 05D3                      l1434 0525                      l1426 04A3  
                    l1418 048B                      l1178 0501                      l1450 01CA  
                    l1442 01AF                      l1194 05F0                      l1186 05E5  
                    l1530 0128                      l1522 00F1                      l1514 00CA  
                    l1506 009A                      l1436 052B                      l1428 050A  
                    l1460 020D                      l1452 01CF                      l1444 01B4  
                    l1196 05F4                      l1188 05E6                      l1540 0147  
                    l1532 012E                      l1524 00FE                      l1516 00D4  
                    l1508 00A0                      l1438 0530                      l1390 043D  
                    l1470 023D                      l1462 0213                      l1454 01E4  
                    l1446 01BA                      l1198 05F5                      l1550 016C  
                    l1542 014B                      l1534 0132                      l1526 0104  
                    l1518 00E1                      l1392 0440                      l1384 0431  
                    l1472 0282                      l1456 01EA                      l1464 0218  
                    l1448 01C4                      l1552 0176                      l1544 014E  
                    l1536 0137                      l1528 010E                      l1480 0023  
                    l1394 0444                      l1386 0434                      l1466 022C  
                    l1458 01FE                      l1546 0154                      l1538 013F  
                    l1490 0044                      l1554 0177                      l1482 0025  
                    l1474 0019                      l1396 0449                      l1388 0438  
                    l1468 0236                      l1548 0166                      l1492 004E  
                    l1484 002A                      l1476 001D                      l1398 044E  
                    l1494 005B                      l1486 0031                      l1478 0021  
                    l1592 017E                      l1496 0061                      l1488 003E  
                    l1498 006B                      STR_1 0306                      STR_2 033C  
                    STR_3 0380                      STR_4 035E                      STR_5 0391  
                    STR_6 031A                      STR_7 032B                      STR_8 034D  
                    STR_9 036F                      u1000 020B                      u1001 020A  
                    u1010 022C                      u1011 022B                      u1020 0234  
                    u1021 0233                      u1005 0207                      u1030 023D  
                    u1031 023C                      u1015 0228                      u1040 028F  
                    u1041 028E                      u1050 014B                      u1107 042A  
                    u1051 014A                      u1117 0555                      u1045 028B  
                    u1127 0567                      u1137 05C4                      u1067 03D6  
                    u1077 03DE                      u1087 0401                      u1097 0422  
                    _TMR2 0011              __CFG_WRT$OFF 0000                      _main 0019  
                    btemp 007E                      start 000C             __CFG_IESO$OFF 0000  
                   ?_main 0070           __end_of___awdiv 04A4                     STR_10 03A2  
           __CFG_WDTE$OFF 0000           __end_of___awmod 0507           ___awdiv@divisor 0072  
                   i1l117 058F                     i1l118 058E                     i1l119 0590  
         ___awdiv@counter 0020                     u83_20 0572                     u83_21 0571  
                   u84_20 0583                     u84_21 0582           __end_of_dispLCD 053E  
          __CFG_FCMEN$OFF 0000                     _t2seg 007A                     _delay 05BB  
                   main@n 0036            __CFG_BOREN$OFF 0000                     pclath 000A  
                   status 0003                     wtemp0 007E      __end_of_dispLCD_init 05BB  
          __CFG_MCLRE$OFF 0000           __initialization 000F              __end_of_main 01A3  
        ?_dispLCD_dataReg 0070                    ??_main 0030      __size_of_dispLCD_clr 0007  
    __size_of_dispLCD_num 00EE          ?_dispLCD_instReg 0070                    ?_delay 0072  
        ___awdiv@dividend 0074                    i1l1350 0583                    i1l1342 056D  
                  i1l1344 0572                    i1l1352 058F                    i1l1346 0573  
                  i1l1348 057D            __CFG_PWRTE$OFF 0000                 ??___awdiv 0076  
               ??___awmod 0076              ?_timer2_init 0070                    delay@t 0072  
        ___awdiv@quotient 0022           ___awmod@divisor 0072                 ??_dispLCD 0020  
                  _ossada 056D           ___awmod@counter 0077                    saved_w 007E  
 __end_of__initialization 0015   __size_of_dispLCD_lincol 0013            __pcstackCOMMON 0070  
           __end_of_delay 05D2                   ??_delay 0074                __pbssBANK0 003A  
   __size_of_dispLCD_init 0024                __pmaintext 0019                __pintentry 0004  
                 ?_ossada 0070                   _LCDbits 0008              _dispLCD_init 0597  
              __stringtab 0300                   ___awdiv 0431                   ___awmod 04A4  
                 _dispLCD 0507                   __ptext0 0000                   __ptext1 05E5  
                 __ptext2 01A3                   __ptext3 04A4                   __ptext4 0431  
                 __ptext5 0597                   __ptext6 05F7                   __ptext7 0507  
                 __ptext8 05D2                   __ptext9 03B1      __size_of_timer2_init 0012  
         __size_of_ossada 002A                 _T2CONbits 0012          ___awmod@dividend 0074  
                 main@n_1 0034                   main@n_2 0032      end_of_initialization 0015  
          dispLCD_num@col 0024            dispLCD_num@div 002E            dispLCD_num@lin 002B  
          dispLCD_num@tam 0027            dispLCD_num@num 0025            _dispLCD_lincol 05D2  
              dispLCD@col 0078                dispLCD@lin 0022                dispLCD@pos 0021  
              dispLCD@str 0079             ??_dispLCD_clr 0075             ??_dispLCD_num 0028  
               _TRISDbits 0088  __size_of_dispLCD_dataReg 002F    __end_of_dispLCD_lincol 05E5  
__size_of_dispLCD_instReg 0080            __end_of_ossada 0597       start_initialization 000F  
     __end_of_dispLCD_clr 05FE       __end_of_dispLCD_num 0291           ?_dispLCD_lincol 0075  
__CFG_FOSC$INTRC_NOCLKOUT 0000         dispLCD_lincol@col 0075         dispLCD_lincol@lin 0077  
                ??_ossada 0070               __pbssCOMMON 007A                 ___latbits 0002  
           __pcstackBANK0 0020         ??_dispLCD_dataReg 0072         ??_dispLCD_instReg 0072  
                ?___awdiv 0072                  ?___awmod 0072               _dispLCD_clr 05F7  
             _dispLCD_num 01A3                  ?_dispLCD 0078                 __pstrings 0300  
          __size_of_delay 0017         interrupt_function 0004             ??_timer2_init 0072  
        dispLCD_dataReg@d 0074               __stringbase 0305          dispLCD_instReg@i 0074  
        __size_of___awdiv 0073          __size_of___awmod 0063          dispLCD_num@sinal 002D  
      __end_of__stringtab 0306          __size_of_dispLCD 0037       __end_of_timer2_init 05F7  
        ??_dispLCD_lincol 0076                  __ptext10 053E                  __ptext11 05BB  
                __ptext12 056D         __CFG_BOR4V$BOR40V 0000                  _contador 003A  
           __size_of_main 018A                  main@tela 0038                _INTCONbits 000B  
           ?_dispLCD_init 0070           _dispLCD_dataReg 053E           dispLCD_num@size 002C  
         _dispLCD_instReg 03B1                  intlevel1 0000                 stringcode 0300  
             _timer2_init 05E5              ?_dispLCD_clr 0070              ?_dispLCD_num 0024  
          ??_dispLCD_init 0075                  stringdir 0300                  stringtab 0300  
